
FinalProject.elf:     file format elf32-avr

Sections:
Idx Name          Size      VMA       LMA       File off  Algn
  0 .data         00000134  00800100  00001470  00001504  2**0
                  CONTENTS, ALLOC, LOAD, DATA
  1 .text         00001470  00000000  00000000  00000094  2**1
                  CONTENTS, ALLOC, LOAD, READONLY, CODE
  2 .bss          0000000f  00800234  00800234  00001638  2**0
                  ALLOC
  3 .comment      0000005c  00000000  00000000  00001638  2**0
                  CONTENTS, READONLY
  4 .note.gnu.avr.deviceinfo 00000040  00000000  00000000  00001694  2**2
                  CONTENTS, READONLY
  5 .debug_aranges 000000a0  00000000  00000000  000016d8  2**3
                  CONTENTS, READONLY, DEBUGGING
  6 .debug_info   00001174  00000000  00000000  00001778  2**0
                  CONTENTS, READONLY, DEBUGGING
  7 .debug_abbrev 00000b17  00000000  00000000  000028ec  2**0
                  CONTENTS, READONLY, DEBUGGING
  8 .debug_line   000008e3  00000000  00000000  00003403  2**0
                  CONTENTS, READONLY, DEBUGGING
  9 .debug_frame  000002b0  00000000  00000000  00003ce8  2**2
                  CONTENTS, READONLY, DEBUGGING
 10 .debug_str    0000068e  00000000  00000000  00003f98  2**0
                  CONTENTS, READONLY, DEBUGGING
 11 .debug_loc    0000080b  00000000  00000000  00004626  2**0
                  CONTENTS, READONLY, DEBUGGING
 12 .debug_ranges 00000070  00000000  00000000  00004e31  2**0
                  CONTENTS, READONLY, DEBUGGING

Disassembly of section .text:

00000000 <__vectors>:
       0:	0c 94 87 00 	jmp	0x10e	; 0x10e <__ctors_end>
       4:	0c 94 a4 00 	jmp	0x148	; 0x148 <__bad_interrupt>
       8:	0c 94 a4 00 	jmp	0x148	; 0x148 <__bad_interrupt>
       c:	0c 94 a4 00 	jmp	0x148	; 0x148 <__bad_interrupt>
      10:	0c 94 f3 01 	jmp	0x3e6	; 0x3e6 <__vector_4>
      14:	0c 94 a4 00 	jmp	0x148	; 0x148 <__bad_interrupt>
      18:	0c 94 a4 00 	jmp	0x148	; 0x148 <__bad_interrupt>
      1c:	0c 94 a4 00 	jmp	0x148	; 0x148 <__bad_interrupt>
      20:	0c 94 a4 00 	jmp	0x148	; 0x148 <__bad_interrupt>
      24:	0c 94 a4 00 	jmp	0x148	; 0x148 <__bad_interrupt>
      28:	0c 94 a4 00 	jmp	0x148	; 0x148 <__bad_interrupt>
      2c:	0c 94 a4 00 	jmp	0x148	; 0x148 <__bad_interrupt>
      30:	0c 94 a4 00 	jmp	0x148	; 0x148 <__bad_interrupt>
      34:	0c 94 26 02 	jmp	0x44c	; 0x44c <__vector_13>
      38:	0c 94 a4 00 	jmp	0x148	; 0x148 <__bad_interrupt>
      3c:	0c 94 a4 00 	jmp	0x148	; 0x148 <__bad_interrupt>
      40:	0c 94 a4 00 	jmp	0x148	; 0x148 <__bad_interrupt>
      44:	0c 94 a4 00 	jmp	0x148	; 0x148 <__bad_interrupt>
      48:	0c 94 a4 00 	jmp	0x148	; 0x148 <__bad_interrupt>
      4c:	0c 94 a4 00 	jmp	0x148	; 0x148 <__bad_interrupt>
      50:	0c 94 a4 00 	jmp	0x148	; 0x148 <__bad_interrupt>
      54:	0c 94 a4 00 	jmp	0x148	; 0x148 <__bad_interrupt>
      58:	0c 94 a4 00 	jmp	0x148	; 0x148 <__bad_interrupt>
      5c:	0c 94 a4 00 	jmp	0x148	; 0x148 <__bad_interrupt>
      60:	0c 94 a4 00 	jmp	0x148	; 0x148 <__bad_interrupt>
      64:	0c 94 a4 00 	jmp	0x148	; 0x148 <__bad_interrupt>
      68:	0c 94 a4 00 	jmp	0x148	; 0x148 <__bad_interrupt>
      6c:	0c 94 a4 00 	jmp	0x148	; 0x148 <__bad_interrupt>
      70:	0c 94 a4 00 	jmp	0x148	; 0x148 <__bad_interrupt>
      74:	0c 94 a4 00 	jmp	0x148	; 0x148 <__bad_interrupt>
      78:	0c 94 a4 00 	jmp	0x148	; 0x148 <__bad_interrupt>
      7c:	0c 94 a4 00 	jmp	0x148	; 0x148 <__bad_interrupt>
      80:	0c 94 a4 00 	jmp	0x148	; 0x148 <__bad_interrupt>
      84:	0c 94 a4 00 	jmp	0x148	; 0x148 <__bad_interrupt>
      88:	0c 94 a4 00 	jmp	0x148	; 0x148 <__bad_interrupt>
      8c:	0c 94 a4 00 	jmp	0x148	; 0x148 <__bad_interrupt>
      90:	0c 94 a4 00 	jmp	0x148	; 0x148 <__bad_interrupt>
      94:	0c 94 a4 00 	jmp	0x148	; 0x148 <__bad_interrupt>
      98:	0c 94 a4 00 	jmp	0x148	; 0x148 <__bad_interrupt>
      9c:	0c 94 a4 00 	jmp	0x148	; 0x148 <__bad_interrupt>
      a0:	0c 94 a4 00 	jmp	0x148	; 0x148 <__bad_interrupt>
      a4:	0c 94 a4 00 	jmp	0x148	; 0x148 <__bad_interrupt>
      a8:	0c 94 a4 00 	jmp	0x148	; 0x148 <__bad_interrupt>
      ac:	0c 94 a4 00 	jmp	0x148	; 0x148 <__bad_interrupt>
      b0:	0c 94 a4 00 	jmp	0x148	; 0x148 <__bad_interrupt>
      b4:	08 00       	.word	0x0008	; ????
      b6:	00 00       	nop
      b8:	be 92       	st	-X, r11
      ba:	24 49       	sbci	r18, 0x94	; 148
      bc:	12 3e       	cpi	r17, 0xE2	; 226
      be:	ab aa       	std	Y+51, r10	; 0x33
      c0:	aa 2a       	or	r10, r26
      c2:	be cd       	rjmp	.-1156   	; 0xfffffc40 <__eeprom_end+0xff7efc40>
      c4:	cc cc       	rjmp	.-1640   	; 0xfffffa5e <__eeprom_end+0xff7efa5e>
      c6:	4c 3e       	cpi	r20, 0xEC	; 236
      c8:	00 00       	nop
      ca:	00 80       	ld	r0, Z
      cc:	be ab       	std	Y+54, r27	; 0x36
      ce:	aa aa       	std	Y+50, r10	; 0x32
      d0:	aa 3e       	cpi	r26, 0xEA	; 234
      d2:	00 00       	nop
      d4:	00 00       	nop
      d6:	bf 00       	.word	0x00bf	; ????
      d8:	00 00       	nop
      da:	80 3f       	cpi	r24, 0xF0	; 240
      dc:	00 00       	nop
      de:	00 00       	nop
      e0:	00 08       	sbc	r0, r0
      e2:	41 78       	andi	r20, 0x81	; 129
      e4:	d3 bb       	out	0x13, r29	; 19
      e6:	43 87       	std	Z+11, r20	; 0x0b
      e8:	d1 13       	cpse	r29, r17
      ea:	3d 19       	sub	r19, r13
      ec:	0e 3c       	cpi	r16, 0xCE	; 206
      ee:	c3 bd       	out	0x23, r28	; 35
      f0:	42 82       	std	Z+2, r4	; 0x02
      f2:	ad 2b       	or	r26, r29
      f4:	3e 68       	ori	r19, 0x8E	; 142
      f6:	ec 82       	std	Y+4, r14	; 0x04
      f8:	76 be       	out	0x36, r7	; 54
      fa:	d9 8f       	std	Y+25, r29	; 0x19
      fc:	e1 a9       	ldd	r30, Z+49	; 0x31
      fe:	3e 4c       	sbci	r19, 0xCE	; 206
     100:	80 ef       	ldi	r24, 0xF0	; 240
     102:	ff be       	out	0x3f, r15	; 63
     104:	01 c4       	rjmp	.+2050   	; 0x908 <__stack+0x9>
     106:	ff 7f       	andi	r31, 0xFF	; 255
     108:	3f 00       	.word	0x003f	; ????
     10a:	00 00       	nop
	...

0000010e <__ctors_end>:
     10e:	11 24       	eor	r1, r1
     110:	1f be       	out	0x3f, r1	; 63
     112:	cf ef       	ldi	r28, 0xFF	; 255
     114:	d8 e0       	ldi	r29, 0x08	; 8
     116:	de bf       	out	0x3e, r29	; 62
     118:	cd bf       	out	0x3d, r28	; 61

0000011a <__do_copy_data>:
     11a:	12 e0       	ldi	r17, 0x02	; 2
     11c:	a0 e0       	ldi	r26, 0x00	; 0
     11e:	b1 e0       	ldi	r27, 0x01	; 1
     120:	e0 e7       	ldi	r30, 0x70	; 112
     122:	f4 e1       	ldi	r31, 0x14	; 20
     124:	02 c0       	rjmp	.+4      	; 0x12a <__do_copy_data+0x10>
     126:	05 90       	lpm	r0, Z+
     128:	0d 92       	st	X+, r0
     12a:	a4 33       	cpi	r26, 0x34	; 52
     12c:	b1 07       	cpc	r27, r17
     12e:	d9 f7       	brne	.-10     	; 0x126 <__do_copy_data+0xc>

00000130 <__do_clear_bss>:
     130:	22 e0       	ldi	r18, 0x02	; 2
     132:	a4 e3       	ldi	r26, 0x34	; 52
     134:	b2 e0       	ldi	r27, 0x02	; 2
     136:	01 c0       	rjmp	.+2      	; 0x13a <.do_clear_bss_start>

00000138 <.do_clear_bss_loop>:
     138:	1d 92       	st	X+, r1

0000013a <.do_clear_bss_start>:
     13a:	a3 34       	cpi	r26, 0x43	; 67
     13c:	b2 07       	cpc	r27, r18
     13e:	e1 f7       	brne	.-8      	; 0x138 <.do_clear_bss_loop>
     140:	0e 94 5e 04 	call	0x8bc	; 0x8bc <main>
     144:	0c 94 36 0a 	jmp	0x146c	; 0x146c <_exit>

00000148 <__bad_interrupt>:
     148:	0c 94 00 00 	jmp	0	; 0x0 <__vectors>

0000014c <Mega328P_Init>:
.section ".text"			
.global Mega328P_Init
Mega328P_Init:
		//***********************************************
		//initialize PB0(R*W),PB1(RS),PB2(E) as fixed cleared outputs
		ldi	r16,0x07		// 0b00000111
     14c:	07 e0       	ldi	r16, 0x07	; 7
		out	DDRB,r16		
     14e:	04 b9       	out	0x04, r16	; 4
		ldi	r16,0			// 0b00000000
     150:	00 e0       	ldi	r16, 0x00	; 0
		out	PORTB,r16		
     152:	05 b9       	out	0x05, r16	; 5
		//***********************************************
		//initialize UART, 8bits, no parity, 1 stop, 9600
		out	U2X0,r16		// 0b00000000	
     154:	01 b9       	out	0x01, r16	; 1
		ldi	r17,0x0			
     156:	10 e0       	ldi	r17, 0x00	; 0
		ldi	r16,0x67		
     158:	07 e6       	ldi	r16, 0x67	; 103
		sts	UBRR0H,r17		// 0b00000000
     15a:	10 93 c5 00 	sts	0x00C5, r17	; 0x8000c5 <__TEXT_REGION_LENGTH__+0x7f80c5>
		sts	UBRR0L,r16		// 0b01100111
     15e:	00 93 c4 00 	sts	0x00C4, r16	; 0x8000c4 <__TEXT_REGION_LENGTH__+0x7f80c4>
		ldi	r16,24			
     162:	08 e1       	ldi	r16, 0x18	; 24
		sts	UCSR0B,r16		// 0b00011000
     164:	00 93 c1 00 	sts	0x00C1, r16	; 0x8000c1 <__TEXT_REGION_LENGTH__+0x7f80c1>
		ldi	r16,6			
     168:	06 e0       	ldi	r16, 0x06	; 6
		sts	UCSR0C,r16		// 0b00000110
     16a:	00 93 c2 00 	sts	0x00C2, r16	; 0x8000c2 <__TEXT_REGION_LENGTH__+0x7f80c2>
		//************************************************
		//initialize ADC
		ldi r16,0x87		
     16e:	07 e8       	ldi	r16, 0x87	; 135
		sts	ADCSRA,r16		// 0b10000111
     170:	00 93 7a 00 	sts	0x007A, r16	; 0x80007a <__TEXT_REGION_LENGTH__+0x7f807a>
		ldi r16,0x40		
     174:	00 e4       	ldi	r16, 0x40	; 64
		sts ADMUX,r16		// 0b01000000
     176:	00 93 7c 00 	sts	0x007C, r16	; 0x80007c <__TEXT_REGION_LENGTH__+0x7f807c>
		ldi r16,0			
     17a:	00 e0       	ldi	r16, 0x00	; 0
		sts ADCSRB,r16		// 0b00000000
     17c:	00 93 7b 00 	sts	0x007B, r16	; 0x80007b <__TEXT_REGION_LENGTH__+0x7f807b>
		ldi r16,0xFE		
     180:	0e ef       	ldi	r16, 0xFE	; 254
		sts DIDR0,r16		// 0b11111110
     182:	00 93 7e 00 	sts	0x007E, r16	; 0x80007e <__TEXT_REGION_LENGTH__+0x7f807e>
		ldi r16,0xFF		
     186:	0f ef       	ldi	r16, 0xFF	; 255
		sts DIDR1,r16		// 0b11111111
     188:	00 93 7f 00 	sts	0x007F, r16	; 0x80007f <__TEXT_REGION_LENGTH__+0x7f807f>
		//************************************************
		//initialize PC1 as output for trigger and PC2 and input for echo
		; Initialize PC1 as output for trigger
		ldi r16, (1<<1)  ; Load register r16 with the bit mask for PC1
     18c:	02 e0       	ldi	r16, 0x02	; 2
		out DDRC, r16    ; Set PC1 as output
     18e:	07 b9       	out	0x07, r16	; 7

		; Initialize PC2 as input for echo
		ldi r16, (1<<2)  ; Load register r16 with the bit mask for PC2
     190:	04 e0       	ldi	r16, 0x04	; 4
		in r17, PORTC    ; Load the current value of PORTC into r17
     192:	18 b1       	in	r17, 0x08	; 8
		or r17, r16      ; Set the bit for PC2 in r17
     194:	10 2b       	or	r17, r16
		out PORTC, r17   ; Write the new value back to PORTC, enabling pull-up resistor for PC2
     196:	18 b9       	out	0x08, r17	; 8

		; Set all pins to low
		ldi r16, 0x00    ; Load register r16 with 0
     198:	00 e0       	ldi	r16, 0x00	; 0
		out PORTC, r16   ; Set all pins to low
     19a:	08 b9       	out	0x08, r16	; 8

0000019c <LCD_Write_Command>:
		//************************************************

.global LCD_Write_Command
LCD_Write_Command:
	call	UART_Off		
     19c:	0e 94 0b 01 	call	0x216	; 0x216 <UART_Off>
	ldi		r16,0xFF		
     1a0:	0f ef       	ldi	r16, 0xFF	; 255
	out		DDRD,r16		
     1a2:	0a b9       	out	0x0a, r16	; 10
	lds		r16,DATA		
     1a4:	00 91 34 02 	lds	r16, 0x0234	; 0x800234 <__data_end>
	out		PORTD,r16		
     1a8:	0b b9       	out	0x0b, r16	; 11
	ldi		r16,4			
     1aa:	04 e0       	ldi	r16, 0x04	; 4
	out		PORTB,r16		
     1ac:	05 b9       	out	0x05, r16	; 5
	call	LCD_Delay		
     1ae:	0e 94 e0 00 	call	0x1c0	; 0x1c0 <LCD_Delay>
	ldi		r16,0			
     1b2:	00 e0       	ldi	r16, 0x00	; 0
	out		PORTB,r16		
     1b4:	05 b9       	out	0x05, r16	; 5
	call	LCD_Delay		
     1b6:	0e 94 e0 00 	call	0x1c0	; 0x1c0 <LCD_Delay>
	call	UART_On			
     1ba:	0e 94 05 01 	call	0x20a	; 0x20a <UART_On>
	ret						
     1be:	08 95       	ret

000001c0 <LCD_Delay>:

LCD_Delay:
	ldi		r16,0xFA		
     1c0:	0a ef       	ldi	r16, 0xFA	; 250

000001c2 <D0>:
D0:	ldi		r17,0xFF		
     1c2:	1f ef       	ldi	r17, 0xFF	; 255

000001c4 <D1>:
D1:	dec		r17				
     1c4:	1a 95       	dec	r17
	brne	D1				
     1c6:	f1 f7       	brne	.-4      	; 0x1c4 <D1>
	dec		r16				
     1c8:	0a 95       	dec	r16
	brne	D0				
     1ca:	d9 f7       	brne	.-10     	; 0x1c2 <D0>
	ret						
     1cc:	08 95       	ret

000001ce <LCD_Write_Data>:

.global LCD_Write_Data
LCD_Write_Data:
	call	UART_Off		
     1ce:	0e 94 0b 01 	call	0x216	; 0x216 <UART_Off>
	ldi		r16,0xFF		
     1d2:	0f ef       	ldi	r16, 0xFF	; 255
	out		DDRD,r16		
     1d4:	0a b9       	out	0x0a, r16	; 10
	lds		r16,DATA		
     1d6:	00 91 34 02 	lds	r16, 0x0234	; 0x800234 <__data_end>
	out		PORTD,r16		
     1da:	0b b9       	out	0x0b, r16	; 11
	ldi		r16,6			
     1dc:	06 e0       	ldi	r16, 0x06	; 6
	out		PORTB,r16		
     1de:	05 b9       	out	0x05, r16	; 5
	call	LCD_Delay		
     1e0:	0e 94 e0 00 	call	0x1c0	; 0x1c0 <LCD_Delay>
	ldi		r16,0			
     1e4:	00 e0       	ldi	r16, 0x00	; 0
	out		PORTB,r16		
     1e6:	05 b9       	out	0x05, r16	; 5
	call	LCD_Delay		
     1e8:	0e 94 e0 00 	call	0x1c0	; 0x1c0 <LCD_Delay>
	call	UART_On			
     1ec:	0e 94 05 01 	call	0x20a	; 0x20a <UART_On>
	ret						
     1f0:	08 95       	ret

000001f2 <LCD_Read_Data>:

.global LCD_Read_Data
LCD_Read_Data:
	call	UART_Off		
     1f2:	0e 94 0b 01 	call	0x216	; 0x216 <UART_Off>
	ldi		r16,0x00		
     1f6:	00 e0       	ldi	r16, 0x00	; 0
	out		DDRD,r16		
     1f8:	0a b9       	out	0x0a, r16	; 10
	out		PORTB,4			
     1fa:	45 b8       	out	0x05, r4	; 5
	in		r16,PORTD		
     1fc:	0b b1       	in	r16, 0x0b	; 11
	sts		DATA,r16		
     1fe:	00 93 34 02 	sts	0x0234, r16	; 0x800234 <__data_end>
	out		PORTB,0			
     202:	05 b8       	out	0x05, r0	; 5
	call	UART_On			
     204:	0e 94 05 01 	call	0x20a	; 0x20a <UART_On>
	ret						
     208:	08 95       	ret

0000020a <UART_On>:

.global UART_On
UART_On:
	ldi		r16,2				
     20a:	02 e0       	ldi	r16, 0x02	; 2
	out		DDRD,r16			
     20c:	0a b9       	out	0x0a, r16	; 10
	ldi		r16,24				
     20e:	08 e1       	ldi	r16, 0x18	; 24
	sts		UCSR0B,r16			
     210:	00 93 c1 00 	sts	0x00C1, r16	; 0x8000c1 <__TEXT_REGION_LENGTH__+0x7f80c1>
	ret							
     214:	08 95       	ret

00000216 <UART_Off>:

.global UART_Off
UART_Off:
	ldi	r16,0					
     216:	00 e0       	ldi	r16, 0x00	; 0
	sts UCSR0B,r16				
     218:	00 93 c1 00 	sts	0x00C1, r16	; 0x8000c1 <__TEXT_REGION_LENGTH__+0x7f80c1>
	ret							
     21c:	08 95       	ret

0000021e <UART_Clear>:

.global UART_Clear
UART_Clear:
	lds		r16,UCSR0A			
     21e:	00 91 c0 00 	lds	r16, 0x00C0	; 0x8000c0 <__TEXT_REGION_LENGTH__+0x7f80c0>
	sbrs	r16,RXC0			
     222:	07 ff       	sbrs	r16, 7
	ret							
     224:	08 95       	ret
	lds		r16,UDR0			
     226:	00 91 c6 00 	lds	r16, 0x00C6	; 0x8000c6 <__TEXT_REGION_LENGTH__+0x7f80c6>
	rjmp	UART_Clear			
     22a:	f9 cf       	rjmp	.-14     	; 0x21e <UART_Clear>

0000022c <UART_Get>:

.global UART_Get
UART_Get:
	lds		r16,UCSR0A			
     22c:	00 91 c0 00 	lds	r16, 0x00C0	; 0x8000c0 <__TEXT_REGION_LENGTH__+0x7f80c0>
	sbrs	r16,RXC0			
     230:	07 ff       	sbrs	r16, 7
	rjmp	UART_Get			
     232:	fc cf       	rjmp	.-8      	; 0x22c <UART_Get>
	lds		r16,UDR0			
     234:	00 91 c6 00 	lds	r16, 0x00C6	; 0x8000c6 <__TEXT_REGION_LENGTH__+0x7f80c6>
	sts		ASCII,r16			
     238:	00 93 3a 02 	sts	0x023A, r16	; 0x80023a <ASCII>
	ret							
     23c:	08 95       	ret

0000023e <UART_Put>:

.global UART_Put
UART_Put:
	lds		r17,UCSR0A			
     23e:	10 91 c0 00 	lds	r17, 0x00C0	; 0x8000c0 <__TEXT_REGION_LENGTH__+0x7f80c0>
	sbrs	r17,UDRE0			
     242:	15 ff       	sbrs	r17, 5
	rjmp	UART_Put			
     244:	fc cf       	rjmp	.-8      	; 0x23e <UART_Put>
	lds		r16,ASCII			
     246:	00 91 3a 02 	lds	r16, 0x023A	; 0x80023a <ASCII>
	sts		UDR0,r16			
     24a:	00 93 c6 00 	sts	0x00C6, r16	; 0x8000c6 <__TEXT_REGION_LENGTH__+0x7f80c6>
	ret							
     24e:	08 95       	ret

00000250 <ADC_Get>:

.global ADC_Get
ADC_Get:
		ldi		r16,0xC7			
     250:	07 ec       	ldi	r16, 0xC7	; 199
		sts		ADCSRA,r16			
     252:	00 93 7a 00 	sts	0x007A, r16	; 0x80007a <__TEXT_REGION_LENGTH__+0x7f807a>

00000256 <A2V1>:
A2V1:	lds		r16,ADCSRA			
     256:	00 91 7a 00 	lds	r16, 0x007A	; 0x80007a <__TEXT_REGION_LENGTH__+0x7f807a>
		sbrc	r16,ADSC			
     25a:	06 fd       	sbrc	r16, 6
		rjmp 	A2V1				
     25c:	fc cf       	rjmp	.-8      	; 0x256 <A2V1>
		lds		r16,ADCL			
     25e:	00 91 78 00 	lds	r16, 0x0078	; 0x800078 <__TEXT_REGION_LENGTH__+0x7f8078>
		sts		LADC,r16			
     262:	00 93 40 02 	sts	0x0240, r16	; 0x800240 <LADC>
		lds		r16,ADCH			
     266:	00 91 79 00 	lds	r16, 0x0079	; 0x800079 <__TEXT_REGION_LENGTH__+0x7f8079>
		sts		HADC,r16			
     26a:	00 93 35 02 	sts	0x0235, r16	; 0x800235 <HADC>
		ret							
     26e:	08 95       	ret

00000270 <Timer1>:
	}
	
}
*/

void Timer1(float us){
     270:	8f 92       	push	r8
     272:	9f 92       	push	r9
     274:	af 92       	push	r10
     276:	bf 92       	push	r11
     278:	cf 92       	push	r12
     27a:	df 92       	push	r13
     27c:	ef 92       	push	r14
     27e:	ff 92       	push	r15
     280:	0f 93       	push	r16
     282:	1f 93       	push	r17
     284:	cf 93       	push	r28
     286:	df 93       	push	r29
     288:	cd b7       	in	r28, 0x3d	; 61
     28a:	de b7       	in	r29, 0x3e	; 62
     28c:	64 97       	sbiw	r28, 0x14	; 20
     28e:	0f b6       	in	r0, 0x3f	; 63
     290:	f8 94       	cli
     292:	de bf       	out	0x3e, r29	; 62
     294:	0f be       	out	0x3f, r0	; 63
     296:	cd bf       	out	0x3d, r28	; 61
	us *= pow(10, -6);		// adjust us to microseconds
     298:	2d eb       	ldi	r18, 0xBD	; 189
     29a:	37 e3       	ldi	r19, 0x37	; 55
     29c:	46 e8       	ldi	r20, 0x86	; 134
     29e:	55 e3       	ldi	r21, 0x35	; 53
     2a0:	0e 94 5e 06 	call	0xcbc	; 0xcbc <__mulsf3>
     2a4:	4b 01       	movw	r8, r22
     2a6:	5c 01       	movw	r10, r24
	
	int timerBits = 16;
	float C = pow(2, timerBits);
    //allowed prescaler values
    float prescalers[] = {1.0, 8.0, 64.0, 256.0, 1024.0};
     2a8:	84 e1       	ldi	r24, 0x14	; 20
     2aa:	e0 e0       	ldi	r30, 0x00	; 0
     2ac:	f1 e0       	ldi	r31, 0x01	; 1
     2ae:	de 01       	movw	r26, r28
     2b0:	11 96       	adiw	r26, 0x01	; 1
     2b2:	01 90       	ld	r0, Z+
     2b4:	0d 92       	st	X+, r0
     2b6:	8a 95       	dec	r24
     2b8:	e1 f7       	brne	.-8      	; 0x2b2 <Timer1+0x42>
	int i;
    //find the best prescaler value
    for (i = 0; i < 5; i++){
     2ba:	00 e0       	ldi	r16, 0x00	; 0
     2bc:	10 e0       	ldi	r17, 0x00	; 0
     2be:	35 c0       	rjmp	.+106    	; 0x32a <Timer1+0xba>
		if (C - (F_CPU * us)/prescalers[i] >= 0){
     2c0:	20 e0       	ldi	r18, 0x00	; 0
     2c2:	34 e2       	ldi	r19, 0x24	; 36
     2c4:	44 e7       	ldi	r20, 0x74	; 116
     2c6:	5b e4       	ldi	r21, 0x4B	; 75
     2c8:	c5 01       	movw	r24, r10
     2ca:	b4 01       	movw	r22, r8
     2cc:	0e 94 5e 06 	call	0xcbc	; 0xcbc <__mulsf3>
     2d0:	f8 01       	movw	r30, r16
     2d2:	ee 0f       	add	r30, r30
     2d4:	ff 1f       	adc	r31, r31
     2d6:	ee 0f       	add	r30, r30
     2d8:	ff 1f       	adc	r31, r31
     2da:	21 e0       	ldi	r18, 0x01	; 1
     2dc:	30 e0       	ldi	r19, 0x00	; 0
     2de:	2c 0f       	add	r18, r28
     2e0:	3d 1f       	adc	r19, r29
     2e2:	e2 0f       	add	r30, r18
     2e4:	f3 1f       	adc	r31, r19
     2e6:	c0 80       	ld	r12, Z
     2e8:	d1 80       	ldd	r13, Z+1	; 0x01
     2ea:	e2 80       	ldd	r14, Z+2	; 0x02
     2ec:	f3 80       	ldd	r15, Z+3	; 0x03
     2ee:	a7 01       	movw	r20, r14
     2f0:	96 01       	movw	r18, r12
     2f2:	0e 94 d3 04 	call	0x9a6	; 0x9a6 <__divsf3>
     2f6:	9b 01       	movw	r18, r22
     2f8:	ac 01       	movw	r20, r24
     2fa:	60 e0       	ldi	r22, 0x00	; 0
     2fc:	70 e0       	ldi	r23, 0x00	; 0
     2fe:	80 e8       	ldi	r24, 0x80	; 128
     300:	97 e4       	ldi	r25, 0x47	; 71
     302:	0e 94 66 04 	call	0x8cc	; 0x8cc <__subsf3>
     306:	20 e0       	ldi	r18, 0x00	; 0
     308:	30 e0       	ldi	r19, 0x00	; 0
     30a:	a9 01       	movw	r20, r18
     30c:	0e 94 09 06 	call	0xc12	; 0xc12 <__gesf2>
     310:	88 23       	and	r24, r24
     312:	4c f0       	brlt	.+18     	; 0x326 <Timer1+0xb6>
			prescaler = prescalers[i];
     314:	c0 92 36 02 	sts	0x0236, r12	; 0x800236 <prescaler>
     318:	d0 92 37 02 	sts	0x0237, r13	; 0x800237 <prescaler+0x1>
     31c:	e0 92 38 02 	sts	0x0238, r14	; 0x800238 <prescaler+0x2>
     320:	f0 92 39 02 	sts	0x0239, r15	; 0x800239 <prescaler+0x3>
			break;
     324:	05 c0       	rjmp	.+10     	; 0x330 <Timer1+0xc0>
	float C = pow(2, timerBits);
    //allowed prescaler values
    float prescalers[] = {1.0, 8.0, 64.0, 256.0, 1024.0};
	int i;
    //find the best prescaler value
    for (i = 0; i < 5; i++){
     326:	0f 5f       	subi	r16, 0xFF	; 255
     328:	1f 4f       	sbci	r17, 0xFF	; 255
     32a:	05 30       	cpi	r16, 0x05	; 5
     32c:	11 05       	cpc	r17, r1
     32e:	44 f2       	brlt	.-112    	; 0x2c0 <Timer1+0x50>
			break;
		}
    }
	
    // calculate timer count
	float timerCount = C - (F_CPU * us)/prescalers[i];
     330:	20 e0       	ldi	r18, 0x00	; 0
     332:	34 e2       	ldi	r19, 0x24	; 36
     334:	44 e7       	ldi	r20, 0x74	; 116
     336:	5b e4       	ldi	r21, 0x4B	; 75
     338:	c5 01       	movw	r24, r10
     33a:	b4 01       	movw	r22, r8
     33c:	0e 94 5e 06 	call	0xcbc	; 0xcbc <__mulsf3>
     340:	f8 01       	movw	r30, r16
     342:	ee 0f       	add	r30, r30
     344:	ff 1f       	adc	r31, r31
     346:	ee 0f       	add	r30, r30
     348:	ff 1f       	adc	r31, r31
     34a:	21 e0       	ldi	r18, 0x01	; 1
     34c:	30 e0       	ldi	r19, 0x00	; 0
     34e:	2c 0f       	add	r18, r28
     350:	3d 1f       	adc	r19, r29
     352:	e2 0f       	add	r30, r18
     354:	f3 1f       	adc	r31, r19
     356:	20 81       	ld	r18, Z
     358:	31 81       	ldd	r19, Z+1	; 0x01
     35a:	42 81       	ldd	r20, Z+2	; 0x02
     35c:	53 81       	ldd	r21, Z+3	; 0x03
     35e:	0e 94 d3 04 	call	0x9a6	; 0x9a6 <__divsf3>
     362:	9b 01       	movw	r18, r22
     364:	ac 01       	movw	r20, r24
     366:	60 e0       	ldi	r22, 0x00	; 0
     368:	70 e0       	ldi	r23, 0x00	; 0
     36a:	80 e8       	ldi	r24, 0x80	; 128
     36c:	97 e4       	ldi	r25, 0x47	; 71
     36e:	0e 94 66 04 	call	0x8cc	; 0x8cc <__subsf3>

	// set timer count in register
	TCNT1 = timerCount;
     372:	0e 94 4c 05 	call	0xa98	; 0xa98 <__fixunssfsi>
     376:	70 93 85 00 	sts	0x0085, r23	; 0x800085 <__TEXT_REGION_LENGTH__+0x7f8085>
     37a:	60 93 84 00 	sts	0x0084, r22	; 0x800084 <__TEXT_REGION_LENGTH__+0x7f8084>

	// set TCCR1A and TCCR1B registers for normal mode and prescaler
	TCCR1A = 0x0;		// normal mode
     37e:	10 92 80 00 	sts	0x0080, r1	; 0x800080 <__TEXT_REGION_LENGTH__+0x7f8080>
	TCCR1B = i + 1;		// prescaler bits 
     382:	0f 5f       	subi	r16, 0xFF	; 255
     384:	00 93 81 00 	sts	0x0081, r16	; 0x800081 <__TEXT_REGION_LENGTH__+0x7f8081>

	// enable timer overflow interrupt
	TIMSK1 = (1 << TOIE1);
     388:	81 e0       	ldi	r24, 0x01	; 1
     38a:	80 93 6f 00 	sts	0x006F, r24	; 0x80006f <__TEXT_REGION_LENGTH__+0x7f806f>

	// enable pin change interrupt for ECHO pin
	PCICR = (1 << PCIE1);
     38e:	82 e0       	ldi	r24, 0x02	; 2
     390:	80 93 68 00 	sts	0x0068, r24	; 0x800068 <__TEXT_REGION_LENGTH__+0x7f8068>
	PCMSK1 = (1 << ECHO_PIN);
     394:	84 e0       	ldi	r24, 0x04	; 4
     396:	80 93 6c 00 	sts	0x006C, r24	; 0x80006c <__TEXT_REGION_LENGTH__+0x7f806c>
	
	while (TCCR1B != 0x0);	// wait for timer to finish
     39a:	80 91 81 00 	lds	r24, 0x0081	; 0x800081 <__TEXT_REGION_LENGTH__+0x7f8081>
     39e:	81 11       	cpse	r24, r1
     3a0:	fc cf       	rjmp	.-8      	; 0x39a <Timer1+0x12a>
	return;
}
     3a2:	64 96       	adiw	r28, 0x14	; 20
     3a4:	0f b6       	in	r0, 0x3f	; 63
     3a6:	f8 94       	cli
     3a8:	de bf       	out	0x3e, r29	; 62
     3aa:	0f be       	out	0x3f, r0	; 63
     3ac:	cd bf       	out	0x3d, r28	; 61
     3ae:	df 91       	pop	r29
     3b0:	cf 91       	pop	r28
     3b2:	1f 91       	pop	r17
     3b4:	0f 91       	pop	r16
     3b6:	ff 90       	pop	r15
     3b8:	ef 90       	pop	r14
     3ba:	df 90       	pop	r13
     3bc:	cf 90       	pop	r12
     3be:	bf 90       	pop	r11
     3c0:	af 90       	pop	r10
     3c2:	9f 90       	pop	r9
     3c4:	8f 90       	pop	r8
     3c6:	08 95       	ret

000003c8 <UART_Puts>:
	TIMSK1 &= ~(1 << TOIE1); // disable timer overflow interrupt
}


void UART_Puts(const char *str)				// Display a string in the PC Terminal Program
{
     3c8:	cf 93       	push	r28
     3ca:	df 93       	push	r29
     3cc:	ec 01       	movw	r28, r24
	while (*str)
     3ce:	05 c0       	rjmp	.+10     	; 0x3da <UART_Puts+0x12>
	{
		ASCII = *str++;
     3d0:	21 96       	adiw	r28, 0x01	; 1
     3d2:	80 93 3a 02 	sts	0x023A, r24	; 0x80023a <ASCII>
		UART_Put();
     3d6:	0e 94 1f 01 	call	0x23e	; 0x23e <UART_Put>
}


void UART_Puts(const char *str)				// Display a string in the PC Terminal Program
{
	while (*str)
     3da:	88 81       	ld	r24, Y
     3dc:	81 11       	cpse	r24, r1
     3de:	f8 cf       	rjmp	.-16     	; 0x3d0 <UART_Puts+0x8>
	{
		ASCII = *str++;
		UART_Put();
	}
}
     3e0:	df 91       	pop	r29
     3e2:	cf 91       	pop	r28
     3e4:	08 95       	ret

000003e6 <__vector_4>:
	while (TCCR1B != 0x0);	// wait for timer to finish
	return;
}

// Timer1 interrupt for ECHO pin
ISR(PCINT1_vect){
     3e6:	1f 92       	push	r1
     3e8:	0f 92       	push	r0
     3ea:	0f b6       	in	r0, 0x3f	; 63
     3ec:	0f 92       	push	r0
     3ee:	11 24       	eor	r1, r1
     3f0:	2f 93       	push	r18
     3f2:	3f 93       	push	r19
     3f4:	4f 93       	push	r20
     3f6:	5f 93       	push	r21
     3f8:	6f 93       	push	r22
     3fa:	7f 93       	push	r23
     3fc:	8f 93       	push	r24
     3fe:	9f 93       	push	r25
     400:	af 93       	push	r26
     402:	bf 93       	push	r27
     404:	ef 93       	push	r30
     406:	ff 93       	push	r31
    UART_Puts("echo interrupt \n\r");
     408:	84 e1       	ldi	r24, 0x14	; 20
     40a:	91 e0       	ldi	r25, 0x01	; 1
     40c:	0e 94 e4 01 	call	0x3c8	; 0x3c8 <UART_Puts>
    if (!(PINC & (1 << ECHO_PIN))){	// if ECHO pin is low
     410:	32 99       	sbic	0x06, 2	; 6
     412:	0b c0       	rjmp	.+22     	; 0x42a <__EEPROM_REGION_LENGTH__+0x2a>
        UART_Puts("AND ECHO WENT LOW \n\r");
     414:	86 e2       	ldi	r24, 0x26	; 38
     416:	91 e0       	ldi	r25, 0x01	; 1
     418:	0e 94 e4 01 	call	0x3c8	; 0x3c8 <UART_Puts>
        TCCR1B = 0x0; // stop the timer
     41c:	10 92 81 00 	sts	0x0081, r1	; 0x800081 <__TEXT_REGION_LENGTH__+0x7f8081>
		//disable echo pin change interrupt
		PCICR &= ~(1 << PCIE1);
     420:	e8 e6       	ldi	r30, 0x68	; 104
     422:	f0 e0       	ldi	r31, 0x00	; 0
     424:	80 81       	ld	r24, Z
     426:	8d 7f       	andi	r24, 0xFD	; 253
     428:	80 83       	st	Z, r24
    }
}
     42a:	ff 91       	pop	r31
     42c:	ef 91       	pop	r30
     42e:	bf 91       	pop	r27
     430:	af 91       	pop	r26
     432:	9f 91       	pop	r25
     434:	8f 91       	pop	r24
     436:	7f 91       	pop	r23
     438:	6f 91       	pop	r22
     43a:	5f 91       	pop	r21
     43c:	4f 91       	pop	r20
     43e:	3f 91       	pop	r19
     440:	2f 91       	pop	r18
     442:	0f 90       	pop	r0
     444:	0f be       	out	0x3f, r0	; 63
     446:	0f 90       	pop	r0
     448:	1f 90       	pop	r1
     44a:	18 95       	reti

0000044c <__vector_13>:

// Timer1 overflow interrupt
ISR(TIMER1_OVF_vect) 
{	
     44c:	1f 92       	push	r1
     44e:	0f 92       	push	r0
     450:	0f b6       	in	r0, 0x3f	; 63
     452:	0f 92       	push	r0
     454:	11 24       	eor	r1, r1
     456:	2f 93       	push	r18
     458:	3f 93       	push	r19
     45a:	4f 93       	push	r20
     45c:	5f 93       	push	r21
     45e:	6f 93       	push	r22
     460:	7f 93       	push	r23
     462:	8f 93       	push	r24
     464:	9f 93       	push	r25
     466:	af 93       	push	r26
     468:	bf 93       	push	r27
     46a:	ef 93       	push	r30
     46c:	ff 93       	push	r31
    UART_Puts("overflow interrupt \n\r");
     46e:	8b e3       	ldi	r24, 0x3B	; 59
     470:	91 e0       	ldi	r25, 0x01	; 1
     472:	0e 94 e4 01 	call	0x3c8	; 0x3c8 <UART_Puts>
    TCCR1B = 0x0; // stop the timer
     476:	10 92 81 00 	sts	0x0081, r1	; 0x800081 <__TEXT_REGION_LENGTH__+0x7f8081>
	TIMSK1 &= ~(1 << TOIE1); // disable timer overflow interrupt
     47a:	ef e6       	ldi	r30, 0x6F	; 111
     47c:	f0 e0       	ldi	r31, 0x00	; 0
     47e:	80 81       	ld	r24, Z
     480:	8e 7f       	andi	r24, 0xFE	; 254
     482:	80 83       	st	Z, r24
}
     484:	ff 91       	pop	r31
     486:	ef 91       	pop	r30
     488:	bf 91       	pop	r27
     48a:	af 91       	pop	r26
     48c:	9f 91       	pop	r25
     48e:	8f 91       	pop	r24
     490:	7f 91       	pop	r23
     492:	6f 91       	pop	r22
     494:	5f 91       	pop	r21
     496:	4f 91       	pop	r20
     498:	3f 91       	pop	r19
     49a:	2f 91       	pop	r18
     49c:	0f 90       	pop	r0
     49e:	0f be       	out	0x3f, r0	; 63
     4a0:	0f 90       	pop	r0
     4a2:	1f 90       	pop	r1
     4a4:	18 95       	reti

000004a6 <LCD_Puts>:
		UART_Put();
	}
}

void LCD_Puts(const char *str)				// Display a string on the LCD Module
{
     4a6:	cf 93       	push	r28
     4a8:	df 93       	push	r29
     4aa:	ec 01       	movw	r28, r24
	while (*str)
     4ac:	05 c0       	rjmp	.+10     	; 0x4b8 <LCD_Puts+0x12>
	{
		DATA = *str++;
     4ae:	21 96       	adiw	r28, 0x01	; 1
     4b0:	80 93 34 02 	sts	0x0234, r24	; 0x800234 <__data_end>
		LCD_Write_Data();
     4b4:	0e 94 e7 00 	call	0x1ce	; 0x1ce <LCD_Write_Data>
	}
}

void LCD_Puts(const char *str)				// Display a string on the LCD Module
{
	while (*str)
     4b8:	88 81       	ld	r24, Y
     4ba:	81 11       	cpse	r24, r1
     4bc:	f8 cf       	rjmp	.-16     	; 0x4ae <LCD_Puts+0x8>
	{
		DATA = *str++;
		LCD_Write_Data();
	}
}
     4be:	df 91       	pop	r29
     4c0:	cf 91       	pop	r28
     4c2:	08 95       	ret

000004c4 <LCD>:

void LCD(void)								// LCD Display
{
	DATA = 0x38;					// 8 bit 2 line 
     4c4:	88 e3       	ldi	r24, 0x38	; 56
     4c6:	80 93 34 02 	sts	0x0234, r24	; 0x800234 <__data_end>
	LCD_Write_Command();
     4ca:	0e 94 ce 00 	call	0x19c	; 0x19c <LCD_Write_Command>
	
	DATA = 0x0E;					// display cursor on 
     4ce:	8e e0       	ldi	r24, 0x0E	; 14
     4d0:	80 93 34 02 	sts	0x0234, r24	; 0x800234 <__data_end>
	LCD_Write_Command();
     4d4:	0e 94 ce 00 	call	0x19c	; 0x19c <LCD_Write_Command>
	
	DATA = 0x01;					// clear LCD
     4d8:	81 e0       	ldi	r24, 0x01	; 1
     4da:	80 93 34 02 	sts	0x0234, r24	; 0x800234 <__data_end>
	LCD_Write_Command();
     4de:	0e 94 ce 00 	call	0x19c	; 0x19c <LCD_Write_Command>
	
	LCD_Puts("test lcd");
     4e2:	81 e5       	ldi	r24, 0x51	; 81
     4e4:	91 e0       	ldi	r25, 0x01	; 1
     4e6:	0e 94 53 02 	call	0x4a6	; 0x4a6 <LCD_Puts>
     4ea:	08 95       	ret

000004ec <calculateTemperature>:
}

float calculateTemperature(int adcValue)	// helper function to calculate temperature from adc
{
     4ec:	8f 92       	push	r8
     4ee:	9f 92       	push	r9
     4f0:	af 92       	push	r10
     4f2:	bf 92       	push	r11
     4f4:	cf 92       	push	r12
     4f6:	df 92       	push	r13
     4f8:	ef 92       	push	r14
     4fa:	ff 92       	push	r15
	// ADC reference voltage and resolution
	float Vref = 3.3;     // ADC reference voltage
	int resolution = 1024;  // ADC resolution (10 bits)

	// Convert ADC value to voltage
	float voltage = (adcValue * Vref) / (float)resolution;
     4fc:	bc 01       	movw	r22, r24
     4fe:	99 0f       	add	r25, r25
     500:	88 0b       	sbc	r24, r24
     502:	99 0b       	sbc	r25, r25
     504:	0e 94 7d 05 	call	0xafa	; 0xafa <__floatsisf>
     508:	23 e3       	ldi	r18, 0x33	; 51
     50a:	33 e3       	ldi	r19, 0x33	; 51
     50c:	43 e5       	ldi	r20, 0x53	; 83
     50e:	50 e4       	ldi	r21, 0x40	; 64
     510:	0e 94 5e 06 	call	0xcbc	; 0xcbc <__mulsf3>
     514:	20 e0       	ldi	r18, 0x00	; 0
     516:	30 e0       	ldi	r19, 0x00	; 0
     518:	40 e8       	ldi	r20, 0x80	; 128
     51a:	5a e3       	ldi	r21, 0x3A	; 58
     51c:	0e 94 5e 06 	call	0xcbc	; 0xcbc <__mulsf3>
     520:	6b 01       	movw	r12, r22
     522:	7c 01       	movw	r14, r24

	// Calculate thermistor resistance
	float resistance = R0 * voltage / (Vref - voltage);
     524:	20 e0       	ldi	r18, 0x00	; 0
     526:	30 e4       	ldi	r19, 0x40	; 64
     528:	4c e1       	ldi	r20, 0x1C	; 28
     52a:	56 e4       	ldi	r21, 0x46	; 70
     52c:	0e 94 5e 06 	call	0xcbc	; 0xcbc <__mulsf3>
     530:	4b 01       	movw	r8, r22
     532:	5c 01       	movw	r10, r24
     534:	a7 01       	movw	r20, r14
     536:	96 01       	movw	r18, r12
     538:	63 e3       	ldi	r22, 0x33	; 51
     53a:	73 e3       	ldi	r23, 0x33	; 51
     53c:	83 e5       	ldi	r24, 0x53	; 83
     53e:	90 e4       	ldi	r25, 0x40	; 64
     540:	0e 94 66 04 	call	0x8cc	; 0x8cc <__subsf3>
     544:	9b 01       	movw	r18, r22
     546:	ac 01       	movw	r20, r24
     548:	c5 01       	movw	r24, r10
     54a:	b4 01       	movw	r22, r8
     54c:	0e 94 d3 04 	call	0x9a6	; 0x9a6 <__divsf3>
	
	// Calculate temperature in Kelvin using the Steinhart-Hart equation
	float tempKelvin = 1.0 / ((log(resistance / R0) / B) + (1.0 / (T0 + 273.15)));
     550:	20 e0       	ldi	r18, 0x00	; 0
     552:	30 e4       	ldi	r19, 0x40	; 64
     554:	4c e1       	ldi	r20, 0x1C	; 28
     556:	56 e4       	ldi	r21, 0x46	; 70
     558:	0e 94 d3 04 	call	0x9a6	; 0x9a6 <__divsf3>
     55c:	0e 94 16 06 	call	0xc2c	; 0xc2c <log>
     560:	20 e0       	ldi	r18, 0x00	; 0
     562:	30 ee       	ldi	r19, 0xE0	; 224
     564:	46 e7       	ldi	r20, 0x76	; 118
     566:	55 e4       	ldi	r21, 0x45	; 69
     568:	0e 94 d3 04 	call	0x9a6	; 0x9a6 <__divsf3>
     56c:	2f e0       	ldi	r18, 0x0F	; 15
     56e:	3f ec       	ldi	r19, 0xCF	; 207
     570:	4b e5       	ldi	r20, 0x5B	; 91
     572:	5b e3       	ldi	r21, 0x3B	; 59
     574:	0e 94 67 04 	call	0x8ce	; 0x8ce <__addsf3>
     578:	9b 01       	movw	r18, r22
     57a:	ac 01       	movw	r20, r24
     57c:	60 e0       	ldi	r22, 0x00	; 0
     57e:	70 e0       	ldi	r23, 0x00	; 0
     580:	80 e8       	ldi	r24, 0x80	; 128
     582:	9f e3       	ldi	r25, 0x3F	; 63
     584:	0e 94 d3 04 	call	0x9a6	; 0x9a6 <__divsf3>
	float temperature = tempKelvin - 273.15;
     588:	23 e3       	ldi	r18, 0x33	; 51
     58a:	33 e9       	ldi	r19, 0x93	; 147
     58c:	48 e8       	ldi	r20, 0x88	; 136
     58e:	53 e4       	ldi	r21, 0x43	; 67
     590:	0e 94 66 04 	call	0x8cc	; 0x8cc <__subsf3>
	
	return temperature;
}
     594:	ff 90       	pop	r15
     596:	ef 90       	pop	r14
     598:	df 90       	pop	r13
     59a:	cf 90       	pop	r12
     59c:	bf 90       	pop	r11
     59e:	af 90       	pop	r10
     5a0:	9f 90       	pop	r9
     5a2:	8f 90       	pop	r8
     5a4:	08 95       	ret

000005a6 <ADConverter>:

void ADConverter(void)								// take in adc value and convert to temp
{
     5a6:	8f 92       	push	r8
     5a8:	9f 92       	push	r9
     5aa:	af 92       	push	r10
     5ac:	bf 92       	push	r11
     5ae:	cf 92       	push	r12
     5b0:	df 92       	push	r13
     5b2:	ef 92       	push	r14
     5b4:	ff 92       	push	r15
     5b6:	0f 93       	push	r16
     5b8:	1f 93       	push	r17
     5ba:	cf 93       	push	r28
     5bc:	df 93       	push	r29
	volts[0x1]='.';
     5be:	cb e3       	ldi	r28, 0x3B	; 59
     5c0:	d2 e0       	ldi	r29, 0x02	; 2
     5c2:	8e e2       	ldi	r24, 0x2E	; 46
     5c4:	89 83       	std	Y+1, r24	; 0x01
	volts[0x3]=' ';
     5c6:	80 e2       	ldi	r24, 0x20	; 32
     5c8:	8b 83       	std	Y+3, r24	; 0x03
	volts[0x4]= 0;
     5ca:	1c 82       	std	Y+4, r1	; 0x04
	ADC_Get();
     5cc:	0e 94 28 01 	call	0x250	; 0x250 <ADC_Get>
	Acc = (((int)HADC) * 0x100 + (int)(LADC))*0xA;
     5d0:	e0 91 35 02 	lds	r30, 0x0235	; 0x800235 <HADC>
     5d4:	f0 e0       	ldi	r31, 0x00	; 0
     5d6:	3e 2f       	mov	r19, r30
     5d8:	22 27       	eor	r18, r18
     5da:	00 91 40 02 	lds	r16, 0x0240	; 0x800240 <LADC>
     5de:	10 e0       	ldi	r17, 0x00	; 0
     5e0:	20 0f       	add	r18, r16
     5e2:	31 1f       	adc	r19, r17
     5e4:	c9 01       	movw	r24, r18
     5e6:	88 0f       	add	r24, r24
     5e8:	99 1f       	adc	r25, r25
     5ea:	22 0f       	add	r18, r18
     5ec:	33 1f       	adc	r19, r19
     5ee:	22 0f       	add	r18, r18
     5f0:	33 1f       	adc	r19, r19
     5f2:	22 0f       	add	r18, r18
     5f4:	33 1f       	adc	r19, r19
     5f6:	82 0f       	add	r24, r18
     5f8:	93 1f       	adc	r25, r19
	volts[0x0] = 48 + (Acc / 0x7FE);
     5fa:	2e ef       	ldi	r18, 0xFE	; 254
     5fc:	37 e0       	ldi	r19, 0x07	; 7
     5fe:	b9 01       	movw	r22, r18
     600:	0e 94 24 07 	call	0xe48	; 0xe48 <__divmodhi4>
     604:	40 e3       	ldi	r20, 0x30	; 48
     606:	46 0f       	add	r20, r22
     608:	48 83       	st	Y, r20
	Acc = Acc % 0x7FE;
	volts[0x2] = ((Acc *0xA) / 0x7FE) + 48;
     60a:	bc 01       	movw	r22, r24
     60c:	66 0f       	add	r22, r22
     60e:	77 1f       	adc	r23, r23
     610:	88 0f       	add	r24, r24
     612:	99 1f       	adc	r25, r25
     614:	88 0f       	add	r24, r24
     616:	99 1f       	adc	r25, r25
     618:	88 0f       	add	r24, r24
     61a:	99 1f       	adc	r25, r25
     61c:	86 0f       	add	r24, r22
     61e:	97 1f       	adc	r25, r23
     620:	b9 01       	movw	r22, r18
     622:	0e 94 24 07 	call	0xe48	; 0xe48 <__divmodhi4>
     626:	60 5d       	subi	r22, 0xD0	; 208
     628:	6a 83       	std	Y+2, r22	; 0x02
	Acc = (Acc * 0xA) % 0x7FE;
     62a:	90 93 42 02 	sts	0x0242, r25	; 0x800242 <Acc+0x1>
     62e:	80 93 41 02 	sts	0x0241, r24	; 0x800241 <Acc>
	if (Acc >= 0x3FF) volts[0x2]++;
     632:	8f 3f       	cpi	r24, 0xFF	; 255
     634:	93 40       	sbci	r25, 0x03	; 3
     636:	1c f0       	brlt	.+6      	; 0x63e <ADConverter+0x98>
     638:	6f 5f       	subi	r22, 0xFF	; 255
     63a:	60 93 3d 02 	sts	0x023D, r22	; 0x80023d <volts+0x2>
	if (volts[0x2] == 58)
     63e:	80 91 3d 02 	lds	r24, 0x023D	; 0x80023d <volts+0x2>
     642:	8a 33       	cpi	r24, 0x3A	; 58
     644:	41 f4       	brne	.+16     	; 0x656 <ADConverter+0xb0>
	{
		volts[0x2] = 48;
     646:	ab e3       	ldi	r26, 0x3B	; 59
     648:	b2 e0       	ldi	r27, 0x02	; 2
     64a:	80 e3       	ldi	r24, 0x30	; 48
     64c:	12 96       	adiw	r26, 0x02	; 2
     64e:	8c 93       	st	X, r24
     650:	12 97       	sbiw	r26, 0x02	; 2
		volts[0x0]++;
     652:	4f 5f       	subi	r20, 0xFF	; 255
     654:	4c 93       	st	X, r20
	}
	int adcValue = (HADC << 8) | LADC;
     656:	9e 2f       	mov	r25, r30
     658:	88 27       	eor	r24, r24
	float temperature_Celsius = calculateTemperature(adcValue);
     65a:	80 2b       	or	r24, r16
     65c:	91 2b       	or	r25, r17
     65e:	0e 94 76 02 	call	0x4ec	; 0x4ec <calculateTemperature>
     662:	4b 01       	movw	r8, r22
     664:	5c 01       	movw	r10, r24
	unsigned int temp_integer = (int)temperature_Celsius;
     666:	0e 94 45 05 	call	0xa8a	; 0xa8a <__fixsfsi>
     66a:	6b 01       	movw	r12, r22
     66c:	7c 01       	movw	r14, r24
	int temp_fractional = (int)((temperature_Celsius - temp_integer)*100);
     66e:	80 e0       	ldi	r24, 0x00	; 0
     670:	90 e0       	ldi	r25, 0x00	; 0
     672:	0e 94 7b 05 	call	0xaf6	; 0xaf6 <__floatunsisf>
     676:	9b 01       	movw	r18, r22
     678:	ac 01       	movw	r20, r24
     67a:	c5 01       	movw	r24, r10
     67c:	b4 01       	movw	r22, r8
     67e:	0e 94 66 04 	call	0x8cc	; 0x8cc <__subsf3>
     682:	20 e0       	ldi	r18, 0x00	; 0
     684:	30 e0       	ldi	r19, 0x00	; 0
     686:	48 ec       	ldi	r20, 0xC8	; 200
     688:	52 e4       	ldi	r21, 0x42	; 66
     68a:	0e 94 5e 06 	call	0xcbc	; 0xcbc <__mulsf3>
     68e:	0e 94 45 05 	call	0xa8a	; 0xa8a <__fixsfsi>
	sprintf(volts, "%d.%d degrees Celsius\n", temp_integer, temp_fractional);
     692:	7f 93       	push	r23
     694:	6f 93       	push	r22
     696:	df 92       	push	r13
     698:	cf 92       	push	r12
     69a:	8a e5       	ldi	r24, 0x5A	; 90
     69c:	91 e0       	ldi	r25, 0x01	; 1
     69e:	9f 93       	push	r25
     6a0:	8f 93       	push	r24
     6a2:	8b e3       	ldi	r24, 0x3B	; 59
     6a4:	92 e0       	ldi	r25, 0x02	; 2
     6a6:	9f 93       	push	r25
     6a8:	8f 93       	push	r24
     6aa:	0e 94 4c 07 	call	0xe98	; 0xe98 <sprintf>
	UART_Puts(volts);
     6ae:	8b e3       	ldi	r24, 0x3B	; 59
     6b0:	92 e0       	ldi	r25, 0x02	; 2
     6b2:	0e 94 e4 01 	call	0x3c8	; 0x3c8 <UART_Puts>
}
     6b6:	8d b7       	in	r24, 0x3d	; 61
     6b8:	9e b7       	in	r25, 0x3e	; 62
     6ba:	08 96       	adiw	r24, 0x08	; 8
     6bc:	0f b6       	in	r0, 0x3f	; 63
     6be:	f8 94       	cli
     6c0:	9e bf       	out	0x3e, r25	; 62
     6c2:	0f be       	out	0x3f, r0	; 63
     6c4:	8d bf       	out	0x3d, r24	; 61
     6c6:	df 91       	pop	r29
     6c8:	cf 91       	pop	r28
     6ca:	1f 91       	pop	r17
     6cc:	0f 91       	pop	r16
     6ce:	ff 90       	pop	r15
     6d0:	ef 90       	pop	r14
     6d2:	df 90       	pop	r13
     6d4:	cf 90       	pop	r12
     6d6:	bf 90       	pop	r11
     6d8:	af 90       	pop	r10
     6da:	9f 90       	pop	r9
     6dc:	8f 90       	pop	r8
     6de:	08 95       	ret

000006e0 <pingDistance>:
	DDRC &= ~(1 << ECHO_PIN);	// Set PC2 as input
}
*/

float pingDistance(void)						// helper function to time trigger ping and return distance
{
     6e0:	8f 92       	push	r8
     6e2:	9f 92       	push	r9
     6e4:	af 92       	push	r10
     6e6:	bf 92       	push	r11
     6e8:	cf 92       	push	r12
     6ea:	df 92       	push	r13
     6ec:	ef 92       	push	r14
     6ee:	ff 92       	push	r15
     6f0:	0f 93       	push	r16
     6f2:	1f 93       	push	r17
     6f4:	cf 93       	push	r28
     6f6:	df 93       	push	r29
     6f8:	cd b7       	in	r28, 0x3d	; 61
     6fa:	de b7       	in	r29, 0x3e	; 62
     6fc:	6c 97       	sbiw	r28, 0x1c	; 28
     6fe:	0f b6       	in	r0, 0x3f	; 63
     700:	f8 94       	cli
     702:	de bf       	out	0x3e, r29	; 62
     704:	0f be       	out	0x3f, r0	; 63
     706:	cd bf       	out	0x3d, r28	; 61
	UART_Puts("starting trigger ping\n\r");
     708:	81 e7       	ldi	r24, 0x71	; 113
     70a:	91 e0       	ldi	r25, 0x01	; 1
     70c:	0e 94 e4 01 	call	0x3c8	; 0x3c8 <UART_Puts>
	// Send a 10us pulse on the Trig pin
	PORTC |= (1 << TRIGGER_PIN);
     710:	88 b1       	in	r24, 0x08	; 8
     712:	82 60       	ori	r24, 0x02	; 2
     714:	88 b9       	out	0x08, r24	; 8
	#else
		//round up by default
		__ticks_dc = (uint32_t)(ceil(fabs(__tmp)));
	#endif

	__builtin_avr_delay_cycles(__ticks_dc);
     716:	85 e3       	ldi	r24, 0x35	; 53
     718:	8a 95       	dec	r24
     71a:	f1 f7       	brne	.-4      	; 0x718 <pingDistance+0x38>
     71c:	00 00       	nop
	_delay_us(10);
	PORTC &= ~(1 << TRIGGER_PIN);
     71e:	88 b1       	in	r24, 0x08	; 8
     720:	8d 7f       	andi	r24, 0xFD	; 253
     722:	88 b9       	out	0x08, r24	; 8

	// Measure the time the Echo pin stays high
	Timer1(MAX_TIMEOUT); // timeout/overflow value
     724:	60 e0       	ldi	r22, 0x00	; 0
     726:	7b e1       	ldi	r23, 0x1B	; 27
     728:	87 e3       	ldi	r24, 0x37	; 55
     72a:	9a e4       	ldi	r25, 0x4A	; 74
     72c:	0e 94 38 01 	call	0x270	; 0x270 <Timer1>
	
	// Calculate time passed
	float time = (TCNT1 * prescaler) / F_CPU; 	// time in seconds
     730:	60 91 84 00 	lds	r22, 0x0084	; 0x800084 <__TEXT_REGION_LENGTH__+0x7f8084>
     734:	70 91 85 00 	lds	r23, 0x0085	; 0x800085 <__TEXT_REGION_LENGTH__+0x7f8085>
     738:	80 e0       	ldi	r24, 0x00	; 0
     73a:	90 e0       	ldi	r25, 0x00	; 0
     73c:	0e 94 7b 05 	call	0xaf6	; 0xaf6 <__floatunsisf>
     740:	20 91 36 02 	lds	r18, 0x0236	; 0x800236 <prescaler>
     744:	30 91 37 02 	lds	r19, 0x0237	; 0x800237 <prescaler+0x1>
     748:	40 91 38 02 	lds	r20, 0x0238	; 0x800238 <prescaler+0x2>
     74c:	50 91 39 02 	lds	r21, 0x0239	; 0x800239 <prescaler+0x3>
     750:	0e 94 5e 06 	call	0xcbc	; 0xcbc <__mulsf3>
     754:	20 e0       	ldi	r18, 0x00	; 0
     756:	34 e2       	ldi	r19, 0x24	; 36
     758:	44 e7       	ldi	r20, 0x74	; 116
     75a:	5b e4       	ldi	r21, 0x4B	; 75
     75c:	0e 94 d3 04 	call	0x9a6	; 0x9a6 <__divsf3>
     760:	6b 01       	movw	r12, r22
     762:	7c 01       	movw	r14, r24
	
	// Calculate distance using speed of sound (34300 cm/s) and accounting for return trip
	float distance = time * 34300.0 / 2.0;	// distance in cm
     764:	20 e0       	ldi	r18, 0x00	; 0
     766:	3c ef       	ldi	r19, 0xFC	; 252
     768:	45 e0       	ldi	r20, 0x05	; 5
     76a:	57 e4       	ldi	r21, 0x47	; 71
     76c:	0e 94 5e 06 	call	0xcbc	; 0xcbc <__mulsf3>
     770:	20 e0       	ldi	r18, 0x00	; 0
     772:	30 e0       	ldi	r19, 0x00	; 0
     774:	40 e0       	ldi	r20, 0x00	; 0
     776:	5f e3       	ldi	r21, 0x3F	; 63
     778:	0e 94 5e 06 	call	0xcbc	; 0xcbc <__mulsf3>
     77c:	4b 01       	movw	r8, r22
     77e:	5c 01       	movw	r10, r24
	
	// output time passed in uart
	char buff[28];
	sprintf(buff, "Time passed: %d ms \n\r", (int) (time*1000));
     780:	20 e0       	ldi	r18, 0x00	; 0
     782:	30 e0       	ldi	r19, 0x00	; 0
     784:	4a e7       	ldi	r20, 0x7A	; 122
     786:	54 e4       	ldi	r21, 0x44	; 68
     788:	c7 01       	movw	r24, r14
     78a:	b6 01       	movw	r22, r12
     78c:	0e 94 5e 06 	call	0xcbc	; 0xcbc <__mulsf3>
     790:	0e 94 45 05 	call	0xa8a	; 0xa8a <__fixsfsi>
     794:	7f 93       	push	r23
     796:	6f 93       	push	r22
     798:	89 e8       	ldi	r24, 0x89	; 137
     79a:	91 e0       	ldi	r25, 0x01	; 1
     79c:	9f 93       	push	r25
     79e:	8f 93       	push	r24
     7a0:	8e 01       	movw	r16, r28
     7a2:	0f 5f       	subi	r16, 0xFF	; 255
     7a4:	1f 4f       	sbci	r17, 0xFF	; 255
     7a6:	1f 93       	push	r17
     7a8:	0f 93       	push	r16
     7aa:	0e 94 4c 07 	call	0xe98	; 0xe98 <sprintf>
	UART_Puts(buff);
     7ae:	c8 01       	movw	r24, r16
     7b0:	0e 94 e4 01 	call	0x3c8	; 0x3c8 <UART_Puts>
	UART_Puts("distance calculated \n\r");
     7b4:	8f e9       	ldi	r24, 0x9F	; 159
     7b6:	91 e0       	ldi	r25, 0x01	; 1
     7b8:	0e 94 e4 01 	call	0x3c8	; 0x3c8 <UART_Puts>
	return distance;
     7bc:	0f 90       	pop	r0
     7be:	0f 90       	pop	r0
     7c0:	0f 90       	pop	r0
     7c2:	0f 90       	pop	r0
     7c4:	0f 90       	pop	r0
     7c6:	0f 90       	pop	r0
}
     7c8:	c5 01       	movw	r24, r10
     7ca:	b4 01       	movw	r22, r8
     7cc:	6c 96       	adiw	r28, 0x1c	; 28
     7ce:	0f b6       	in	r0, 0x3f	; 63
     7d0:	f8 94       	cli
     7d2:	de bf       	out	0x3e, r29	; 62
     7d4:	0f be       	out	0x3f, r0	; 63
     7d6:	cd bf       	out	0x3d, r28	; 61
     7d8:	df 91       	pop	r29
     7da:	cf 91       	pop	r28
     7dc:	1f 91       	pop	r17
     7de:	0f 91       	pop	r16
     7e0:	ff 90       	pop	r15
     7e2:	ef 90       	pop	r14
     7e4:	df 90       	pop	r13
     7e6:	cf 90       	pop	r12
     7e8:	bf 90       	pop	r11
     7ea:	af 90       	pop	r10
     7ec:	9f 90       	pop	r9
     7ee:	8f 90       	pop	r8
     7f0:	08 95       	ret

000007f2 <USS>:

void USS(void){
     7f2:	0f 93       	push	r16
     7f4:	1f 93       	push	r17
     7f6:	cf 93       	push	r28
     7f8:	df 93       	push	r29
     7fa:	cd b7       	in	r28, 0x3d	; 61
     7fc:	de b7       	in	r29, 0x3e	; 62
     7fe:	6c 97       	sbiw	r28, 0x1c	; 28
     800:	0f b6       	in	r0, 0x3f	; 63
     802:	f8 94       	cli
     804:	de bf       	out	0x3e, r29	; 62
     806:	0f be       	out	0x3f, r0	; 63
     808:	cd bf       	out	0x3d, r28	; 61
	float distance = pingDistance();
     80a:	0e 94 70 03 	call	0x6e0	; 0x6e0 <pingDistance>
	
	char buff[28]; // buffer to store distance as string
	sprintf(buff, "distance = %d m\n", (int) (distance / 100.0)); // meters
     80e:	20 e0       	ldi	r18, 0x00	; 0
     810:	30 e0       	ldi	r19, 0x00	; 0
     812:	48 ec       	ldi	r20, 0xC8	; 200
     814:	52 e4       	ldi	r21, 0x42	; 66
     816:	0e 94 d3 04 	call	0x9a6	; 0x9a6 <__divsf3>
     81a:	0e 94 45 05 	call	0xa8a	; 0xa8a <__fixsfsi>
     81e:	7f 93       	push	r23
     820:	6f 93       	push	r22
     822:	86 eb       	ldi	r24, 0xB6	; 182
     824:	91 e0       	ldi	r25, 0x01	; 1
     826:	9f 93       	push	r25
     828:	8f 93       	push	r24
     82a:	8e 01       	movw	r16, r28
     82c:	0f 5f       	subi	r16, 0xFF	; 255
     82e:	1f 4f       	sbci	r17, 0xFF	; 255
     830:	1f 93       	push	r17
     832:	0f 93       	push	r16
     834:	0e 94 4c 07 	call	0xe98	; 0xe98 <sprintf>
	
	//display to both UART and LCD
	UART_Puts(buff);
     838:	c8 01       	movw	r24, r16
     83a:	0e 94 e4 01 	call	0x3c8	; 0x3c8 <UART_Puts>
	LCD_Puts(buff);
     83e:	c8 01       	movw	r24, r16
     840:	0e 94 53 02 	call	0x4a6	; 0x4a6 <LCD_Puts>
	
	return;
     844:	0f 90       	pop	r0
     846:	0f 90       	pop	r0
     848:	0f 90       	pop	r0
     84a:	0f 90       	pop	r0
     84c:	0f 90       	pop	r0
     84e:	0f 90       	pop	r0
}
     850:	6c 96       	adiw	r28, 0x1c	; 28
     852:	0f b6       	in	r0, 0x3f	; 63
     854:	f8 94       	cli
     856:	de bf       	out	0x3e, r29	; 62
     858:	0f be       	out	0x3f, r0	; 63
     85a:	cd bf       	out	0x3d, r28	; 61
     85c:	df 91       	pop	r29
     85e:	cf 91       	pop	r28
     860:	1f 91       	pop	r17
     862:	0f 91       	pop	r16
     864:	08 95       	ret

00000866 <Banner>:

void Banner(void)							// Display the Banner
{
	LCD_Puts(BannerMSG);
     866:	87 ec       	ldi	r24, 0xC7	; 199
     868:	91 e0       	ldi	r25, 0x01	; 1
     86a:	0e 94 53 02 	call	0x4a6	; 0x4a6 <LCD_Puts>
	UART_Puts(BannerMSG);
     86e:	87 ec       	ldi	r24, 0xC7	; 199
     870:	91 e0       	ldi	r25, 0x01	; 1
     872:	0e 94 e4 01 	call	0x3c8	; 0x3c8 <UART_Puts>
     876:	08 95       	ret

00000878 <Command>:
	return;
}

void Command(void)							// command interpreter
{
	UART_Puts(MenuMSG);
     878:	81 e1       	ldi	r24, 0x11	; 17
     87a:	92 e0       	ldi	r25, 0x02	; 2
     87c:	0e 94 e4 01 	call	0x3c8	; 0x3c8 <UART_Puts>
	ASCII = '\0';
     880:	10 92 3a 02 	sts	0x023A, r1	; 0x80023a <ASCII>
	while (ASCII == '\0')
     884:	02 c0       	rjmp	.+4      	; 0x88a <Command+0x12>
	{
		UART_Get();
     886:	0e 94 16 01 	call	0x22c	; 0x22c <UART_Get>

void Command(void)							// command interpreter
{
	UART_Puts(MenuMSG);
	ASCII = '\0';
	while (ASCII == '\0')
     88a:	80 91 3a 02 	lds	r24, 0x023A	; 0x80023a <ASCII>
     88e:	88 23       	and	r24, r24
     890:	d1 f3       	breq	.-12     	; 0x886 <Command+0xe>
	{
		UART_Get();
	}
	switch (ASCII)
     892:	8c 36       	cpi	r24, 0x6C	; 108
     894:	29 f0       	breq	.+10     	; 0x8a0 <Command+0x28>
     896:	80 37       	cpi	r24, 0x70	; 112
     898:	49 f0       	breq	.+18     	; 0x8ac <Command+0x34>
     89a:	81 36       	cpi	r24, 0x61	; 97
     89c:	51 f4       	brne	.+20     	; 0x8b2 <Command+0x3a>
     89e:	03 c0       	rjmp	.+6      	; 0x8a6 <Command+0x2e>
	{
		case 'L' | 'l': LCD();
     8a0:	0e 94 62 02 	call	0x4c4	; 0x4c4 <LCD>
		break;
     8a4:	08 95       	ret
		case 'A' | 'a': ADConverter();
     8a6:	0e 94 d3 02 	call	0x5a6	; 0x5a6 <ADConverter>
		break;
     8aa:	08 95       	ret
		case 'P' | 'p': USS();
     8ac:	0e 94 f9 03 	call	0x7f2	; 0x7f2 <USS>
		break;
     8b0:	08 95       	ret
		default: UART_Puts(InvalidCommandMSG);
     8b2:	82 ef       	ldi	r24, 0xF2	; 242
     8b4:	91 e0       	ldi	r25, 0x01	; 1
     8b6:	0e 94 e4 01 	call	0x3c8	; 0x3c8 <UART_Puts>
     8ba:	08 95       	ret

000008bc <main>:
}


int main(void)
{
	Mega328P_Init();
     8bc:	0e 94 a6 00 	call	0x14c	; 0x14c <Mega328P_Init>
	Banner();
     8c0:	0e 94 33 04 	call	0x866	; 0x866 <Banner>
	sei();
     8c4:	78 94       	sei
	
	while (1){
		Command();
     8c6:	0e 94 3c 04 	call	0x878	; 0x878 <Command>
     8ca:	fd cf       	rjmp	.-6      	; 0x8c6 <main+0xa>

000008cc <__subsf3>:
     8cc:	50 58       	subi	r21, 0x80	; 128

000008ce <__addsf3>:
     8ce:	bb 27       	eor	r27, r27
     8d0:	aa 27       	eor	r26, r26
     8d2:	0e 94 7e 04 	call	0x8fc	; 0x8fc <__addsf3x>
     8d6:	0c 94 cf 05 	jmp	0xb9e	; 0xb9e <__fp_round>
     8da:	0e 94 c1 05 	call	0xb82	; 0xb82 <__fp_pscA>
     8de:	38 f0       	brcs	.+14     	; 0x8ee <__addsf3+0x20>
     8e0:	0e 94 c8 05 	call	0xb90	; 0xb90 <__fp_pscB>
     8e4:	20 f0       	brcs	.+8      	; 0x8ee <__addsf3+0x20>
     8e6:	39 f4       	brne	.+14     	; 0x8f6 <__addsf3+0x28>
     8e8:	9f 3f       	cpi	r25, 0xFF	; 255
     8ea:	19 f4       	brne	.+6      	; 0x8f2 <__addsf3+0x24>
     8ec:	26 f4       	brtc	.+8      	; 0x8f6 <__addsf3+0x28>
     8ee:	0c 94 be 05 	jmp	0xb7c	; 0xb7c <__fp_nan>
     8f2:	0e f4       	brtc	.+2      	; 0x8f6 <__addsf3+0x28>
     8f4:	e0 95       	com	r30
     8f6:	e7 fb       	bst	r30, 7
     8f8:	0c 94 b8 05 	jmp	0xb70	; 0xb70 <__fp_inf>

000008fc <__addsf3x>:
     8fc:	e9 2f       	mov	r30, r25
     8fe:	0e 94 e0 05 	call	0xbc0	; 0xbc0 <__fp_split3>
     902:	58 f3       	brcs	.-42     	; 0x8da <__addsf3+0xc>
     904:	ba 17       	cp	r27, r26
     906:	62 07       	cpc	r22, r18
     908:	73 07       	cpc	r23, r19
     90a:	84 07       	cpc	r24, r20
     90c:	95 07       	cpc	r25, r21
     90e:	20 f0       	brcs	.+8      	; 0x918 <__stack+0x19>
     910:	79 f4       	brne	.+30     	; 0x930 <__stack+0x31>
     912:	a6 f5       	brtc	.+104    	; 0x97c <__stack+0x7d>
     914:	0c 94 02 06 	jmp	0xc04	; 0xc04 <__fp_zero>
     918:	0e f4       	brtc	.+2      	; 0x91c <__stack+0x1d>
     91a:	e0 95       	com	r30
     91c:	0b 2e       	mov	r0, r27
     91e:	ba 2f       	mov	r27, r26
     920:	a0 2d       	mov	r26, r0
     922:	0b 01       	movw	r0, r22
     924:	b9 01       	movw	r22, r18
     926:	90 01       	movw	r18, r0
     928:	0c 01       	movw	r0, r24
     92a:	ca 01       	movw	r24, r20
     92c:	a0 01       	movw	r20, r0
     92e:	11 24       	eor	r1, r1
     930:	ff 27       	eor	r31, r31
     932:	59 1b       	sub	r21, r25
     934:	99 f0       	breq	.+38     	; 0x95c <__stack+0x5d>
     936:	59 3f       	cpi	r21, 0xF9	; 249
     938:	50 f4       	brcc	.+20     	; 0x94e <__stack+0x4f>
     93a:	50 3e       	cpi	r21, 0xE0	; 224
     93c:	68 f1       	brcs	.+90     	; 0x998 <__stack+0x99>
     93e:	1a 16       	cp	r1, r26
     940:	f0 40       	sbci	r31, 0x00	; 0
     942:	a2 2f       	mov	r26, r18
     944:	23 2f       	mov	r18, r19
     946:	34 2f       	mov	r19, r20
     948:	44 27       	eor	r20, r20
     94a:	58 5f       	subi	r21, 0xF8	; 248
     94c:	f3 cf       	rjmp	.-26     	; 0x934 <__stack+0x35>
     94e:	46 95       	lsr	r20
     950:	37 95       	ror	r19
     952:	27 95       	ror	r18
     954:	a7 95       	ror	r26
     956:	f0 40       	sbci	r31, 0x00	; 0
     958:	53 95       	inc	r21
     95a:	c9 f7       	brne	.-14     	; 0x94e <__stack+0x4f>
     95c:	7e f4       	brtc	.+30     	; 0x97c <__stack+0x7d>
     95e:	1f 16       	cp	r1, r31
     960:	ba 0b       	sbc	r27, r26
     962:	62 0b       	sbc	r22, r18
     964:	73 0b       	sbc	r23, r19
     966:	84 0b       	sbc	r24, r20
     968:	ba f0       	brmi	.+46     	; 0x998 <__stack+0x99>
     96a:	91 50       	subi	r25, 0x01	; 1
     96c:	a1 f0       	breq	.+40     	; 0x996 <__stack+0x97>
     96e:	ff 0f       	add	r31, r31
     970:	bb 1f       	adc	r27, r27
     972:	66 1f       	adc	r22, r22
     974:	77 1f       	adc	r23, r23
     976:	88 1f       	adc	r24, r24
     978:	c2 f7       	brpl	.-16     	; 0x96a <__stack+0x6b>
     97a:	0e c0       	rjmp	.+28     	; 0x998 <__stack+0x99>
     97c:	ba 0f       	add	r27, r26
     97e:	62 1f       	adc	r22, r18
     980:	73 1f       	adc	r23, r19
     982:	84 1f       	adc	r24, r20
     984:	48 f4       	brcc	.+18     	; 0x998 <__stack+0x99>
     986:	87 95       	ror	r24
     988:	77 95       	ror	r23
     98a:	67 95       	ror	r22
     98c:	b7 95       	ror	r27
     98e:	f7 95       	ror	r31
     990:	9e 3f       	cpi	r25, 0xFE	; 254
     992:	08 f0       	brcs	.+2      	; 0x996 <__stack+0x97>
     994:	b0 cf       	rjmp	.-160    	; 0x8f6 <__addsf3+0x28>
     996:	93 95       	inc	r25
     998:	88 0f       	add	r24, r24
     99a:	08 f0       	brcs	.+2      	; 0x99e <__stack+0x9f>
     99c:	99 27       	eor	r25, r25
     99e:	ee 0f       	add	r30, r30
     9a0:	97 95       	ror	r25
     9a2:	87 95       	ror	r24
     9a4:	08 95       	ret

000009a6 <__divsf3>:
     9a6:	0e 94 e7 04 	call	0x9ce	; 0x9ce <__divsf3x>
     9aa:	0c 94 cf 05 	jmp	0xb9e	; 0xb9e <__fp_round>
     9ae:	0e 94 c8 05 	call	0xb90	; 0xb90 <__fp_pscB>
     9b2:	58 f0       	brcs	.+22     	; 0x9ca <__divsf3+0x24>
     9b4:	0e 94 c1 05 	call	0xb82	; 0xb82 <__fp_pscA>
     9b8:	40 f0       	brcs	.+16     	; 0x9ca <__divsf3+0x24>
     9ba:	29 f4       	brne	.+10     	; 0x9c6 <__divsf3+0x20>
     9bc:	5f 3f       	cpi	r21, 0xFF	; 255
     9be:	29 f0       	breq	.+10     	; 0x9ca <__divsf3+0x24>
     9c0:	0c 94 b8 05 	jmp	0xb70	; 0xb70 <__fp_inf>
     9c4:	51 11       	cpse	r21, r1
     9c6:	0c 94 03 06 	jmp	0xc06	; 0xc06 <__fp_szero>
     9ca:	0c 94 be 05 	jmp	0xb7c	; 0xb7c <__fp_nan>

000009ce <__divsf3x>:
     9ce:	0e 94 e0 05 	call	0xbc0	; 0xbc0 <__fp_split3>
     9d2:	68 f3       	brcs	.-38     	; 0x9ae <__divsf3+0x8>

000009d4 <__divsf3_pse>:
     9d4:	99 23       	and	r25, r25
     9d6:	b1 f3       	breq	.-20     	; 0x9c4 <__divsf3+0x1e>
     9d8:	55 23       	and	r21, r21
     9da:	91 f3       	breq	.-28     	; 0x9c0 <__divsf3+0x1a>
     9dc:	95 1b       	sub	r25, r21
     9de:	55 0b       	sbc	r21, r21
     9e0:	bb 27       	eor	r27, r27
     9e2:	aa 27       	eor	r26, r26
     9e4:	62 17       	cp	r22, r18
     9e6:	73 07       	cpc	r23, r19
     9e8:	84 07       	cpc	r24, r20
     9ea:	38 f0       	brcs	.+14     	; 0x9fa <__divsf3_pse+0x26>
     9ec:	9f 5f       	subi	r25, 0xFF	; 255
     9ee:	5f 4f       	sbci	r21, 0xFF	; 255
     9f0:	22 0f       	add	r18, r18
     9f2:	33 1f       	adc	r19, r19
     9f4:	44 1f       	adc	r20, r20
     9f6:	aa 1f       	adc	r26, r26
     9f8:	a9 f3       	breq	.-22     	; 0x9e4 <__divsf3_pse+0x10>
     9fa:	35 d0       	rcall	.+106    	; 0xa66 <__divsf3_pse+0x92>
     9fc:	0e 2e       	mov	r0, r30
     9fe:	3a f0       	brmi	.+14     	; 0xa0e <__divsf3_pse+0x3a>
     a00:	e0 e8       	ldi	r30, 0x80	; 128
     a02:	32 d0       	rcall	.+100    	; 0xa68 <__divsf3_pse+0x94>
     a04:	91 50       	subi	r25, 0x01	; 1
     a06:	50 40       	sbci	r21, 0x00	; 0
     a08:	e6 95       	lsr	r30
     a0a:	00 1c       	adc	r0, r0
     a0c:	ca f7       	brpl	.-14     	; 0xa00 <__divsf3_pse+0x2c>
     a0e:	2b d0       	rcall	.+86     	; 0xa66 <__divsf3_pse+0x92>
     a10:	fe 2f       	mov	r31, r30
     a12:	29 d0       	rcall	.+82     	; 0xa66 <__divsf3_pse+0x92>
     a14:	66 0f       	add	r22, r22
     a16:	77 1f       	adc	r23, r23
     a18:	88 1f       	adc	r24, r24
     a1a:	bb 1f       	adc	r27, r27
     a1c:	26 17       	cp	r18, r22
     a1e:	37 07       	cpc	r19, r23
     a20:	48 07       	cpc	r20, r24
     a22:	ab 07       	cpc	r26, r27
     a24:	b0 e8       	ldi	r27, 0x80	; 128
     a26:	09 f0       	breq	.+2      	; 0xa2a <__divsf3_pse+0x56>
     a28:	bb 0b       	sbc	r27, r27
     a2a:	80 2d       	mov	r24, r0
     a2c:	bf 01       	movw	r22, r30
     a2e:	ff 27       	eor	r31, r31
     a30:	93 58       	subi	r25, 0x83	; 131
     a32:	5f 4f       	sbci	r21, 0xFF	; 255
     a34:	3a f0       	brmi	.+14     	; 0xa44 <__divsf3_pse+0x70>
     a36:	9e 3f       	cpi	r25, 0xFE	; 254
     a38:	51 05       	cpc	r21, r1
     a3a:	78 f0       	brcs	.+30     	; 0xa5a <__divsf3_pse+0x86>
     a3c:	0c 94 b8 05 	jmp	0xb70	; 0xb70 <__fp_inf>
     a40:	0c 94 03 06 	jmp	0xc06	; 0xc06 <__fp_szero>
     a44:	5f 3f       	cpi	r21, 0xFF	; 255
     a46:	e4 f3       	brlt	.-8      	; 0xa40 <__divsf3_pse+0x6c>
     a48:	98 3e       	cpi	r25, 0xE8	; 232
     a4a:	d4 f3       	brlt	.-12     	; 0xa40 <__divsf3_pse+0x6c>
     a4c:	86 95       	lsr	r24
     a4e:	77 95       	ror	r23
     a50:	67 95       	ror	r22
     a52:	b7 95       	ror	r27
     a54:	f7 95       	ror	r31
     a56:	9f 5f       	subi	r25, 0xFF	; 255
     a58:	c9 f7       	brne	.-14     	; 0xa4c <__divsf3_pse+0x78>
     a5a:	88 0f       	add	r24, r24
     a5c:	91 1d       	adc	r25, r1
     a5e:	96 95       	lsr	r25
     a60:	87 95       	ror	r24
     a62:	97 f9       	bld	r25, 7
     a64:	08 95       	ret
     a66:	e1 e0       	ldi	r30, 0x01	; 1
     a68:	66 0f       	add	r22, r22
     a6a:	77 1f       	adc	r23, r23
     a6c:	88 1f       	adc	r24, r24
     a6e:	bb 1f       	adc	r27, r27
     a70:	62 17       	cp	r22, r18
     a72:	73 07       	cpc	r23, r19
     a74:	84 07       	cpc	r24, r20
     a76:	ba 07       	cpc	r27, r26
     a78:	20 f0       	brcs	.+8      	; 0xa82 <__divsf3_pse+0xae>
     a7a:	62 1b       	sub	r22, r18
     a7c:	73 0b       	sbc	r23, r19
     a7e:	84 0b       	sbc	r24, r20
     a80:	ba 0b       	sbc	r27, r26
     a82:	ee 1f       	adc	r30, r30
     a84:	88 f7       	brcc	.-30     	; 0xa68 <__divsf3_pse+0x94>
     a86:	e0 95       	com	r30
     a88:	08 95       	ret

00000a8a <__fixsfsi>:
     a8a:	0e 94 4c 05 	call	0xa98	; 0xa98 <__fixunssfsi>
     a8e:	68 94       	set
     a90:	b1 11       	cpse	r27, r1
     a92:	0c 94 03 06 	jmp	0xc06	; 0xc06 <__fp_szero>
     a96:	08 95       	ret

00000a98 <__fixunssfsi>:
     a98:	0e 94 e8 05 	call	0xbd0	; 0xbd0 <__fp_splitA>
     a9c:	88 f0       	brcs	.+34     	; 0xac0 <__fixunssfsi+0x28>
     a9e:	9f 57       	subi	r25, 0x7F	; 127
     aa0:	98 f0       	brcs	.+38     	; 0xac8 <__fixunssfsi+0x30>
     aa2:	b9 2f       	mov	r27, r25
     aa4:	99 27       	eor	r25, r25
     aa6:	b7 51       	subi	r27, 0x17	; 23
     aa8:	b0 f0       	brcs	.+44     	; 0xad6 <__fixunssfsi+0x3e>
     aaa:	e1 f0       	breq	.+56     	; 0xae4 <__fixunssfsi+0x4c>
     aac:	66 0f       	add	r22, r22
     aae:	77 1f       	adc	r23, r23
     ab0:	88 1f       	adc	r24, r24
     ab2:	99 1f       	adc	r25, r25
     ab4:	1a f0       	brmi	.+6      	; 0xabc <__fixunssfsi+0x24>
     ab6:	ba 95       	dec	r27
     ab8:	c9 f7       	brne	.-14     	; 0xaac <__fixunssfsi+0x14>
     aba:	14 c0       	rjmp	.+40     	; 0xae4 <__fixunssfsi+0x4c>
     abc:	b1 30       	cpi	r27, 0x01	; 1
     abe:	91 f0       	breq	.+36     	; 0xae4 <__fixunssfsi+0x4c>
     ac0:	0e 94 02 06 	call	0xc04	; 0xc04 <__fp_zero>
     ac4:	b1 e0       	ldi	r27, 0x01	; 1
     ac6:	08 95       	ret
     ac8:	0c 94 02 06 	jmp	0xc04	; 0xc04 <__fp_zero>
     acc:	67 2f       	mov	r22, r23
     ace:	78 2f       	mov	r23, r24
     ad0:	88 27       	eor	r24, r24
     ad2:	b8 5f       	subi	r27, 0xF8	; 248
     ad4:	39 f0       	breq	.+14     	; 0xae4 <__fixunssfsi+0x4c>
     ad6:	b9 3f       	cpi	r27, 0xF9	; 249
     ad8:	cc f3       	brlt	.-14     	; 0xacc <__fixunssfsi+0x34>
     ada:	86 95       	lsr	r24
     adc:	77 95       	ror	r23
     ade:	67 95       	ror	r22
     ae0:	b3 95       	inc	r27
     ae2:	d9 f7       	brne	.-10     	; 0xada <__fixunssfsi+0x42>
     ae4:	3e f4       	brtc	.+14     	; 0xaf4 <__fixunssfsi+0x5c>
     ae6:	90 95       	com	r25
     ae8:	80 95       	com	r24
     aea:	70 95       	com	r23
     aec:	61 95       	neg	r22
     aee:	7f 4f       	sbci	r23, 0xFF	; 255
     af0:	8f 4f       	sbci	r24, 0xFF	; 255
     af2:	9f 4f       	sbci	r25, 0xFF	; 255
     af4:	08 95       	ret

00000af6 <__floatunsisf>:
     af6:	e8 94       	clt
     af8:	09 c0       	rjmp	.+18     	; 0xb0c <__floatsisf+0x12>

00000afa <__floatsisf>:
     afa:	97 fb       	bst	r25, 7
     afc:	3e f4       	brtc	.+14     	; 0xb0c <__floatsisf+0x12>
     afe:	90 95       	com	r25
     b00:	80 95       	com	r24
     b02:	70 95       	com	r23
     b04:	61 95       	neg	r22
     b06:	7f 4f       	sbci	r23, 0xFF	; 255
     b08:	8f 4f       	sbci	r24, 0xFF	; 255
     b0a:	9f 4f       	sbci	r25, 0xFF	; 255
     b0c:	99 23       	and	r25, r25
     b0e:	a9 f0       	breq	.+42     	; 0xb3a <__floatsisf+0x40>
     b10:	f9 2f       	mov	r31, r25
     b12:	96 e9       	ldi	r25, 0x96	; 150
     b14:	bb 27       	eor	r27, r27
     b16:	93 95       	inc	r25
     b18:	f6 95       	lsr	r31
     b1a:	87 95       	ror	r24
     b1c:	77 95       	ror	r23
     b1e:	67 95       	ror	r22
     b20:	b7 95       	ror	r27
     b22:	f1 11       	cpse	r31, r1
     b24:	f8 cf       	rjmp	.-16     	; 0xb16 <__floatsisf+0x1c>
     b26:	fa f4       	brpl	.+62     	; 0xb66 <__floatsisf+0x6c>
     b28:	bb 0f       	add	r27, r27
     b2a:	11 f4       	brne	.+4      	; 0xb30 <__floatsisf+0x36>
     b2c:	60 ff       	sbrs	r22, 0
     b2e:	1b c0       	rjmp	.+54     	; 0xb66 <__floatsisf+0x6c>
     b30:	6f 5f       	subi	r22, 0xFF	; 255
     b32:	7f 4f       	sbci	r23, 0xFF	; 255
     b34:	8f 4f       	sbci	r24, 0xFF	; 255
     b36:	9f 4f       	sbci	r25, 0xFF	; 255
     b38:	16 c0       	rjmp	.+44     	; 0xb66 <__floatsisf+0x6c>
     b3a:	88 23       	and	r24, r24
     b3c:	11 f0       	breq	.+4      	; 0xb42 <__floatsisf+0x48>
     b3e:	96 e9       	ldi	r25, 0x96	; 150
     b40:	11 c0       	rjmp	.+34     	; 0xb64 <__floatsisf+0x6a>
     b42:	77 23       	and	r23, r23
     b44:	21 f0       	breq	.+8      	; 0xb4e <__floatsisf+0x54>
     b46:	9e e8       	ldi	r25, 0x8E	; 142
     b48:	87 2f       	mov	r24, r23
     b4a:	76 2f       	mov	r23, r22
     b4c:	05 c0       	rjmp	.+10     	; 0xb58 <__floatsisf+0x5e>
     b4e:	66 23       	and	r22, r22
     b50:	71 f0       	breq	.+28     	; 0xb6e <__floatsisf+0x74>
     b52:	96 e8       	ldi	r25, 0x86	; 134
     b54:	86 2f       	mov	r24, r22
     b56:	70 e0       	ldi	r23, 0x00	; 0
     b58:	60 e0       	ldi	r22, 0x00	; 0
     b5a:	2a f0       	brmi	.+10     	; 0xb66 <__floatsisf+0x6c>
     b5c:	9a 95       	dec	r25
     b5e:	66 0f       	add	r22, r22
     b60:	77 1f       	adc	r23, r23
     b62:	88 1f       	adc	r24, r24
     b64:	da f7       	brpl	.-10     	; 0xb5c <__floatsisf+0x62>
     b66:	88 0f       	add	r24, r24
     b68:	96 95       	lsr	r25
     b6a:	87 95       	ror	r24
     b6c:	97 f9       	bld	r25, 7
     b6e:	08 95       	ret

00000b70 <__fp_inf>:
     b70:	97 f9       	bld	r25, 7
     b72:	9f 67       	ori	r25, 0x7F	; 127
     b74:	80 e8       	ldi	r24, 0x80	; 128
     b76:	70 e0       	ldi	r23, 0x00	; 0
     b78:	60 e0       	ldi	r22, 0x00	; 0
     b7a:	08 95       	ret

00000b7c <__fp_nan>:
     b7c:	9f ef       	ldi	r25, 0xFF	; 255
     b7e:	80 ec       	ldi	r24, 0xC0	; 192
     b80:	08 95       	ret

00000b82 <__fp_pscA>:
     b82:	00 24       	eor	r0, r0
     b84:	0a 94       	dec	r0
     b86:	16 16       	cp	r1, r22
     b88:	17 06       	cpc	r1, r23
     b8a:	18 06       	cpc	r1, r24
     b8c:	09 06       	cpc	r0, r25
     b8e:	08 95       	ret

00000b90 <__fp_pscB>:
     b90:	00 24       	eor	r0, r0
     b92:	0a 94       	dec	r0
     b94:	12 16       	cp	r1, r18
     b96:	13 06       	cpc	r1, r19
     b98:	14 06       	cpc	r1, r20
     b9a:	05 06       	cpc	r0, r21
     b9c:	08 95       	ret

00000b9e <__fp_round>:
     b9e:	09 2e       	mov	r0, r25
     ba0:	03 94       	inc	r0
     ba2:	00 0c       	add	r0, r0
     ba4:	11 f4       	brne	.+4      	; 0xbaa <__fp_round+0xc>
     ba6:	88 23       	and	r24, r24
     ba8:	52 f0       	brmi	.+20     	; 0xbbe <__fp_round+0x20>
     baa:	bb 0f       	add	r27, r27
     bac:	40 f4       	brcc	.+16     	; 0xbbe <__fp_round+0x20>
     bae:	bf 2b       	or	r27, r31
     bb0:	11 f4       	brne	.+4      	; 0xbb6 <__fp_round+0x18>
     bb2:	60 ff       	sbrs	r22, 0
     bb4:	04 c0       	rjmp	.+8      	; 0xbbe <__fp_round+0x20>
     bb6:	6f 5f       	subi	r22, 0xFF	; 255
     bb8:	7f 4f       	sbci	r23, 0xFF	; 255
     bba:	8f 4f       	sbci	r24, 0xFF	; 255
     bbc:	9f 4f       	sbci	r25, 0xFF	; 255
     bbe:	08 95       	ret

00000bc0 <__fp_split3>:
     bc0:	57 fd       	sbrc	r21, 7
     bc2:	90 58       	subi	r25, 0x80	; 128
     bc4:	44 0f       	add	r20, r20
     bc6:	55 1f       	adc	r21, r21
     bc8:	59 f0       	breq	.+22     	; 0xbe0 <__fp_splitA+0x10>
     bca:	5f 3f       	cpi	r21, 0xFF	; 255
     bcc:	71 f0       	breq	.+28     	; 0xbea <__fp_splitA+0x1a>
     bce:	47 95       	ror	r20

00000bd0 <__fp_splitA>:
     bd0:	88 0f       	add	r24, r24
     bd2:	97 fb       	bst	r25, 7
     bd4:	99 1f       	adc	r25, r25
     bd6:	61 f0       	breq	.+24     	; 0xbf0 <__fp_splitA+0x20>
     bd8:	9f 3f       	cpi	r25, 0xFF	; 255
     bda:	79 f0       	breq	.+30     	; 0xbfa <__fp_splitA+0x2a>
     bdc:	87 95       	ror	r24
     bde:	08 95       	ret
     be0:	12 16       	cp	r1, r18
     be2:	13 06       	cpc	r1, r19
     be4:	14 06       	cpc	r1, r20
     be6:	55 1f       	adc	r21, r21
     be8:	f2 cf       	rjmp	.-28     	; 0xbce <__fp_split3+0xe>
     bea:	46 95       	lsr	r20
     bec:	f1 df       	rcall	.-30     	; 0xbd0 <__fp_splitA>
     bee:	08 c0       	rjmp	.+16     	; 0xc00 <__fp_splitA+0x30>
     bf0:	16 16       	cp	r1, r22
     bf2:	17 06       	cpc	r1, r23
     bf4:	18 06       	cpc	r1, r24
     bf6:	99 1f       	adc	r25, r25
     bf8:	f1 cf       	rjmp	.-30     	; 0xbdc <__fp_splitA+0xc>
     bfa:	86 95       	lsr	r24
     bfc:	71 05       	cpc	r23, r1
     bfe:	61 05       	cpc	r22, r1
     c00:	08 94       	sec
     c02:	08 95       	ret

00000c04 <__fp_zero>:
     c04:	e8 94       	clt

00000c06 <__fp_szero>:
     c06:	bb 27       	eor	r27, r27
     c08:	66 27       	eor	r22, r22
     c0a:	77 27       	eor	r23, r23
     c0c:	cb 01       	movw	r24, r22
     c0e:	97 f9       	bld	r25, 7
     c10:	08 95       	ret

00000c12 <__gesf2>:
     c12:	0e 94 cb 06 	call	0xd96	; 0xd96 <__fp_cmp>
     c16:	08 f4       	brcc	.+2      	; 0xc1a <__gesf2+0x8>
     c18:	8f ef       	ldi	r24, 0xFF	; 255
     c1a:	08 95       	ret
     c1c:	16 f0       	brts	.+4      	; 0xc22 <__gesf2+0x10>
     c1e:	0c 94 ef 06 	jmp	0xdde	; 0xdde <__fp_mpack>
     c22:	0c 94 be 05 	jmp	0xb7c	; 0xb7c <__fp_nan>
     c26:	68 94       	set
     c28:	0c 94 b8 05 	jmp	0xb70	; 0xb70 <__fp_inf>

00000c2c <log>:
     c2c:	0e 94 e8 05 	call	0xbd0	; 0xbd0 <__fp_splitA>
     c30:	a8 f3       	brcs	.-22     	; 0xc1c <__gesf2+0xa>
     c32:	99 23       	and	r25, r25
     c34:	c1 f3       	breq	.-16     	; 0xc26 <__gesf2+0x14>
     c36:	ae f3       	brts	.-22     	; 0xc22 <__gesf2+0x10>
     c38:	df 93       	push	r29
     c3a:	cf 93       	push	r28
     c3c:	1f 93       	push	r17
     c3e:	0f 93       	push	r16
     c40:	ff 92       	push	r15
     c42:	c9 2f       	mov	r28, r25
     c44:	dd 27       	eor	r29, r29
     c46:	88 23       	and	r24, r24
     c48:	2a f0       	brmi	.+10     	; 0xc54 <log+0x28>
     c4a:	21 97       	sbiw	r28, 0x01	; 1
     c4c:	66 0f       	add	r22, r22
     c4e:	77 1f       	adc	r23, r23
     c50:	88 1f       	adc	r24, r24
     c52:	da f7       	brpl	.-10     	; 0xc4a <log+0x1e>
     c54:	20 e0       	ldi	r18, 0x00	; 0
     c56:	30 e0       	ldi	r19, 0x00	; 0
     c58:	40 e8       	ldi	r20, 0x80	; 128
     c5a:	5f eb       	ldi	r21, 0xBF	; 191
     c5c:	9f e3       	ldi	r25, 0x3F	; 63
     c5e:	88 39       	cpi	r24, 0x98	; 152
     c60:	20 f0       	brcs	.+8      	; 0xc6a <log+0x3e>
     c62:	80 3e       	cpi	r24, 0xE0	; 224
     c64:	38 f0       	brcs	.+14     	; 0xc74 <log+0x48>
     c66:	21 96       	adiw	r28, 0x01	; 1
     c68:	8f 77       	andi	r24, 0x7F	; 127
     c6a:	0e 94 67 04 	call	0x8ce	; 0x8ce <__addsf3>
     c6e:	e4 eb       	ldi	r30, 0xB4	; 180
     c70:	f0 e0       	ldi	r31, 0x00	; 0
     c72:	04 c0       	rjmp	.+8      	; 0xc7c <log+0x50>
     c74:	0e 94 67 04 	call	0x8ce	; 0x8ce <__addsf3>
     c78:	e1 ee       	ldi	r30, 0xE1	; 225
     c7a:	f0 e0       	ldi	r31, 0x00	; 0
     c7c:	0e 94 fd 06 	call	0xdfa	; 0xdfa <__fp_powser>
     c80:	8b 01       	movw	r16, r22
     c82:	be 01       	movw	r22, r28
     c84:	ec 01       	movw	r28, r24
     c86:	fb 2e       	mov	r15, r27
     c88:	6f 57       	subi	r22, 0x7F	; 127
     c8a:	71 09       	sbc	r23, r1
     c8c:	75 95       	asr	r23
     c8e:	77 1f       	adc	r23, r23
     c90:	88 0b       	sbc	r24, r24
     c92:	99 0b       	sbc	r25, r25
     c94:	0e 94 7d 05 	call	0xafa	; 0xafa <__floatsisf>
     c98:	28 e1       	ldi	r18, 0x18	; 24
     c9a:	32 e7       	ldi	r19, 0x72	; 114
     c9c:	41 e3       	ldi	r20, 0x31	; 49
     c9e:	5f e3       	ldi	r21, 0x3F	; 63
     ca0:	0e 94 71 06 	call	0xce2	; 0xce2 <__mulsf3x>
     ca4:	af 2d       	mov	r26, r15
     ca6:	98 01       	movw	r18, r16
     ca8:	ae 01       	movw	r20, r28
     caa:	ff 90       	pop	r15
     cac:	0f 91       	pop	r16
     cae:	1f 91       	pop	r17
     cb0:	cf 91       	pop	r28
     cb2:	df 91       	pop	r29
     cb4:	0e 94 7e 04 	call	0x8fc	; 0x8fc <__addsf3x>
     cb8:	0c 94 cf 05 	jmp	0xb9e	; 0xb9e <__fp_round>

00000cbc <__mulsf3>:
     cbc:	0e 94 71 06 	call	0xce2	; 0xce2 <__mulsf3x>
     cc0:	0c 94 cf 05 	jmp	0xb9e	; 0xb9e <__fp_round>
     cc4:	0e 94 c1 05 	call	0xb82	; 0xb82 <__fp_pscA>
     cc8:	38 f0       	brcs	.+14     	; 0xcd8 <__mulsf3+0x1c>
     cca:	0e 94 c8 05 	call	0xb90	; 0xb90 <__fp_pscB>
     cce:	20 f0       	brcs	.+8      	; 0xcd8 <__mulsf3+0x1c>
     cd0:	95 23       	and	r25, r21
     cd2:	11 f0       	breq	.+4      	; 0xcd8 <__mulsf3+0x1c>
     cd4:	0c 94 b8 05 	jmp	0xb70	; 0xb70 <__fp_inf>
     cd8:	0c 94 be 05 	jmp	0xb7c	; 0xb7c <__fp_nan>
     cdc:	11 24       	eor	r1, r1
     cde:	0c 94 03 06 	jmp	0xc06	; 0xc06 <__fp_szero>

00000ce2 <__mulsf3x>:
     ce2:	0e 94 e0 05 	call	0xbc0	; 0xbc0 <__fp_split3>
     ce6:	70 f3       	brcs	.-36     	; 0xcc4 <__mulsf3+0x8>

00000ce8 <__mulsf3_pse>:
     ce8:	95 9f       	mul	r25, r21
     cea:	c1 f3       	breq	.-16     	; 0xcdc <__mulsf3+0x20>
     cec:	95 0f       	add	r25, r21
     cee:	50 e0       	ldi	r21, 0x00	; 0
     cf0:	55 1f       	adc	r21, r21
     cf2:	62 9f       	mul	r22, r18
     cf4:	f0 01       	movw	r30, r0
     cf6:	72 9f       	mul	r23, r18
     cf8:	bb 27       	eor	r27, r27
     cfa:	f0 0d       	add	r31, r0
     cfc:	b1 1d       	adc	r27, r1
     cfe:	63 9f       	mul	r22, r19
     d00:	aa 27       	eor	r26, r26
     d02:	f0 0d       	add	r31, r0
     d04:	b1 1d       	adc	r27, r1
     d06:	aa 1f       	adc	r26, r26
     d08:	64 9f       	mul	r22, r20
     d0a:	66 27       	eor	r22, r22
     d0c:	b0 0d       	add	r27, r0
     d0e:	a1 1d       	adc	r26, r1
     d10:	66 1f       	adc	r22, r22
     d12:	82 9f       	mul	r24, r18
     d14:	22 27       	eor	r18, r18
     d16:	b0 0d       	add	r27, r0
     d18:	a1 1d       	adc	r26, r1
     d1a:	62 1f       	adc	r22, r18
     d1c:	73 9f       	mul	r23, r19
     d1e:	b0 0d       	add	r27, r0
     d20:	a1 1d       	adc	r26, r1
     d22:	62 1f       	adc	r22, r18
     d24:	83 9f       	mul	r24, r19
     d26:	a0 0d       	add	r26, r0
     d28:	61 1d       	adc	r22, r1
     d2a:	22 1f       	adc	r18, r18
     d2c:	74 9f       	mul	r23, r20
     d2e:	33 27       	eor	r19, r19
     d30:	a0 0d       	add	r26, r0
     d32:	61 1d       	adc	r22, r1
     d34:	23 1f       	adc	r18, r19
     d36:	84 9f       	mul	r24, r20
     d38:	60 0d       	add	r22, r0
     d3a:	21 1d       	adc	r18, r1
     d3c:	82 2f       	mov	r24, r18
     d3e:	76 2f       	mov	r23, r22
     d40:	6a 2f       	mov	r22, r26
     d42:	11 24       	eor	r1, r1
     d44:	9f 57       	subi	r25, 0x7F	; 127
     d46:	50 40       	sbci	r21, 0x00	; 0
     d48:	9a f0       	brmi	.+38     	; 0xd70 <__mulsf3_pse+0x88>
     d4a:	f1 f0       	breq	.+60     	; 0xd88 <__mulsf3_pse+0xa0>
     d4c:	88 23       	and	r24, r24
     d4e:	4a f0       	brmi	.+18     	; 0xd62 <__mulsf3_pse+0x7a>
     d50:	ee 0f       	add	r30, r30
     d52:	ff 1f       	adc	r31, r31
     d54:	bb 1f       	adc	r27, r27
     d56:	66 1f       	adc	r22, r22
     d58:	77 1f       	adc	r23, r23
     d5a:	88 1f       	adc	r24, r24
     d5c:	91 50       	subi	r25, 0x01	; 1
     d5e:	50 40       	sbci	r21, 0x00	; 0
     d60:	a9 f7       	brne	.-22     	; 0xd4c <__mulsf3_pse+0x64>
     d62:	9e 3f       	cpi	r25, 0xFE	; 254
     d64:	51 05       	cpc	r21, r1
     d66:	80 f0       	brcs	.+32     	; 0xd88 <__mulsf3_pse+0xa0>
     d68:	0c 94 b8 05 	jmp	0xb70	; 0xb70 <__fp_inf>
     d6c:	0c 94 03 06 	jmp	0xc06	; 0xc06 <__fp_szero>
     d70:	5f 3f       	cpi	r21, 0xFF	; 255
     d72:	e4 f3       	brlt	.-8      	; 0xd6c <__mulsf3_pse+0x84>
     d74:	98 3e       	cpi	r25, 0xE8	; 232
     d76:	d4 f3       	brlt	.-12     	; 0xd6c <__mulsf3_pse+0x84>
     d78:	86 95       	lsr	r24
     d7a:	77 95       	ror	r23
     d7c:	67 95       	ror	r22
     d7e:	b7 95       	ror	r27
     d80:	f7 95       	ror	r31
     d82:	e7 95       	ror	r30
     d84:	9f 5f       	subi	r25, 0xFF	; 255
     d86:	c1 f7       	brne	.-16     	; 0xd78 <__mulsf3_pse+0x90>
     d88:	fe 2b       	or	r31, r30
     d8a:	88 0f       	add	r24, r24
     d8c:	91 1d       	adc	r25, r1
     d8e:	96 95       	lsr	r25
     d90:	87 95       	ror	r24
     d92:	97 f9       	bld	r25, 7
     d94:	08 95       	ret

00000d96 <__fp_cmp>:
     d96:	99 0f       	add	r25, r25
     d98:	00 08       	sbc	r0, r0
     d9a:	55 0f       	add	r21, r21
     d9c:	aa 0b       	sbc	r26, r26
     d9e:	e0 e8       	ldi	r30, 0x80	; 128
     da0:	fe ef       	ldi	r31, 0xFE	; 254
     da2:	16 16       	cp	r1, r22
     da4:	17 06       	cpc	r1, r23
     da6:	e8 07       	cpc	r30, r24
     da8:	f9 07       	cpc	r31, r25
     daa:	c0 f0       	brcs	.+48     	; 0xddc <__fp_cmp+0x46>
     dac:	12 16       	cp	r1, r18
     dae:	13 06       	cpc	r1, r19
     db0:	e4 07       	cpc	r30, r20
     db2:	f5 07       	cpc	r31, r21
     db4:	98 f0       	brcs	.+38     	; 0xddc <__fp_cmp+0x46>
     db6:	62 1b       	sub	r22, r18
     db8:	73 0b       	sbc	r23, r19
     dba:	84 0b       	sbc	r24, r20
     dbc:	95 0b       	sbc	r25, r21
     dbe:	39 f4       	brne	.+14     	; 0xdce <__fp_cmp+0x38>
     dc0:	0a 26       	eor	r0, r26
     dc2:	61 f0       	breq	.+24     	; 0xddc <__fp_cmp+0x46>
     dc4:	23 2b       	or	r18, r19
     dc6:	24 2b       	or	r18, r20
     dc8:	25 2b       	or	r18, r21
     dca:	21 f4       	brne	.+8      	; 0xdd4 <__fp_cmp+0x3e>
     dcc:	08 95       	ret
     dce:	0a 26       	eor	r0, r26
     dd0:	09 f4       	brne	.+2      	; 0xdd4 <__fp_cmp+0x3e>
     dd2:	a1 40       	sbci	r26, 0x01	; 1
     dd4:	a6 95       	lsr	r26
     dd6:	8f ef       	ldi	r24, 0xFF	; 255
     dd8:	81 1d       	adc	r24, r1
     dda:	81 1d       	adc	r24, r1
     ddc:	08 95       	ret

00000dde <__fp_mpack>:
     dde:	9f 3f       	cpi	r25, 0xFF	; 255
     de0:	31 f0       	breq	.+12     	; 0xdee <__fp_mpack_finite+0xc>

00000de2 <__fp_mpack_finite>:
     de2:	91 50       	subi	r25, 0x01	; 1
     de4:	20 f4       	brcc	.+8      	; 0xdee <__fp_mpack_finite+0xc>
     de6:	87 95       	ror	r24
     de8:	77 95       	ror	r23
     dea:	67 95       	ror	r22
     dec:	b7 95       	ror	r27
     dee:	88 0f       	add	r24, r24
     df0:	91 1d       	adc	r25, r1
     df2:	96 95       	lsr	r25
     df4:	87 95       	ror	r24
     df6:	97 f9       	bld	r25, 7
     df8:	08 95       	ret

00000dfa <__fp_powser>:
     dfa:	df 93       	push	r29
     dfc:	cf 93       	push	r28
     dfe:	1f 93       	push	r17
     e00:	0f 93       	push	r16
     e02:	ff 92       	push	r15
     e04:	ef 92       	push	r14
     e06:	df 92       	push	r13
     e08:	7b 01       	movw	r14, r22
     e0a:	8c 01       	movw	r16, r24
     e0c:	68 94       	set
     e0e:	06 c0       	rjmp	.+12     	; 0xe1c <__fp_powser+0x22>
     e10:	da 2e       	mov	r13, r26
     e12:	ef 01       	movw	r28, r30
     e14:	0e 94 71 06 	call	0xce2	; 0xce2 <__mulsf3x>
     e18:	fe 01       	movw	r30, r28
     e1a:	e8 94       	clt
     e1c:	a5 91       	lpm	r26, Z+
     e1e:	25 91       	lpm	r18, Z+
     e20:	35 91       	lpm	r19, Z+
     e22:	45 91       	lpm	r20, Z+
     e24:	55 91       	lpm	r21, Z+
     e26:	a6 f3       	brts	.-24     	; 0xe10 <__fp_powser+0x16>
     e28:	ef 01       	movw	r28, r30
     e2a:	0e 94 7e 04 	call	0x8fc	; 0x8fc <__addsf3x>
     e2e:	fe 01       	movw	r30, r28
     e30:	97 01       	movw	r18, r14
     e32:	a8 01       	movw	r20, r16
     e34:	da 94       	dec	r13
     e36:	69 f7       	brne	.-38     	; 0xe12 <__fp_powser+0x18>
     e38:	df 90       	pop	r13
     e3a:	ef 90       	pop	r14
     e3c:	ff 90       	pop	r15
     e3e:	0f 91       	pop	r16
     e40:	1f 91       	pop	r17
     e42:	cf 91       	pop	r28
     e44:	df 91       	pop	r29
     e46:	08 95       	ret

00000e48 <__divmodhi4>:
     e48:	97 fb       	bst	r25, 7
     e4a:	07 2e       	mov	r0, r23
     e4c:	16 f4       	brtc	.+4      	; 0xe52 <__divmodhi4+0xa>
     e4e:	00 94       	com	r0
     e50:	07 d0       	rcall	.+14     	; 0xe60 <__divmodhi4_neg1>
     e52:	77 fd       	sbrc	r23, 7
     e54:	09 d0       	rcall	.+18     	; 0xe68 <__divmodhi4_neg2>
     e56:	0e 94 38 07 	call	0xe70	; 0xe70 <__udivmodhi4>
     e5a:	07 fc       	sbrc	r0, 7
     e5c:	05 d0       	rcall	.+10     	; 0xe68 <__divmodhi4_neg2>
     e5e:	3e f4       	brtc	.+14     	; 0xe6e <__divmodhi4_exit>

00000e60 <__divmodhi4_neg1>:
     e60:	90 95       	com	r25
     e62:	81 95       	neg	r24
     e64:	9f 4f       	sbci	r25, 0xFF	; 255
     e66:	08 95       	ret

00000e68 <__divmodhi4_neg2>:
     e68:	70 95       	com	r23
     e6a:	61 95       	neg	r22
     e6c:	7f 4f       	sbci	r23, 0xFF	; 255

00000e6e <__divmodhi4_exit>:
     e6e:	08 95       	ret

00000e70 <__udivmodhi4>:
     e70:	aa 1b       	sub	r26, r26
     e72:	bb 1b       	sub	r27, r27
     e74:	51 e1       	ldi	r21, 0x11	; 17
     e76:	07 c0       	rjmp	.+14     	; 0xe86 <__udivmodhi4_ep>

00000e78 <__udivmodhi4_loop>:
     e78:	aa 1f       	adc	r26, r26
     e7a:	bb 1f       	adc	r27, r27
     e7c:	a6 17       	cp	r26, r22
     e7e:	b7 07       	cpc	r27, r23
     e80:	10 f0       	brcs	.+4      	; 0xe86 <__udivmodhi4_ep>
     e82:	a6 1b       	sub	r26, r22
     e84:	b7 0b       	sbc	r27, r23

00000e86 <__udivmodhi4_ep>:
     e86:	88 1f       	adc	r24, r24
     e88:	99 1f       	adc	r25, r25
     e8a:	5a 95       	dec	r21
     e8c:	a9 f7       	brne	.-22     	; 0xe78 <__udivmodhi4_loop>
     e8e:	80 95       	com	r24
     e90:	90 95       	com	r25
     e92:	bc 01       	movw	r22, r24
     e94:	cd 01       	movw	r24, r26
     e96:	08 95       	ret

00000e98 <sprintf>:
     e98:	ae e0       	ldi	r26, 0x0E	; 14
     e9a:	b0 e0       	ldi	r27, 0x00	; 0
     e9c:	e2 e5       	ldi	r30, 0x52	; 82
     e9e:	f7 e0       	ldi	r31, 0x07	; 7
     ea0:	0c 94 0d 0a 	jmp	0x141a	; 0x141a <__prologue_saves__+0x1c>
     ea4:	0d 89       	ldd	r16, Y+21	; 0x15
     ea6:	1e 89       	ldd	r17, Y+22	; 0x16
     ea8:	86 e0       	ldi	r24, 0x06	; 6
     eaa:	8c 83       	std	Y+4, r24	; 0x04
     eac:	1a 83       	std	Y+2, r17	; 0x02
     eae:	09 83       	std	Y+1, r16	; 0x01
     eb0:	8f ef       	ldi	r24, 0xFF	; 255
     eb2:	9f e7       	ldi	r25, 0x7F	; 127
     eb4:	9e 83       	std	Y+6, r25	; 0x06
     eb6:	8d 83       	std	Y+5, r24	; 0x05
     eb8:	ae 01       	movw	r20, r28
     eba:	47 5e       	subi	r20, 0xE7	; 231
     ebc:	5f 4f       	sbci	r21, 0xFF	; 255
     ebe:	6f 89       	ldd	r22, Y+23	; 0x17
     ec0:	78 8d       	ldd	r23, Y+24	; 0x18
     ec2:	ce 01       	movw	r24, r28
     ec4:	01 96       	adiw	r24, 0x01	; 1
     ec6:	0e 94 6e 07 	call	0xedc	; 0xedc <vfprintf>
     eca:	ef 81       	ldd	r30, Y+7	; 0x07
     ecc:	f8 85       	ldd	r31, Y+8	; 0x08
     ece:	e0 0f       	add	r30, r16
     ed0:	f1 1f       	adc	r31, r17
     ed2:	10 82       	st	Z, r1
     ed4:	2e 96       	adiw	r28, 0x0e	; 14
     ed6:	e4 e0       	ldi	r30, 0x04	; 4
     ed8:	0c 94 29 0a 	jmp	0x1452	; 0x1452 <__epilogue_restores__+0x1c>

00000edc <vfprintf>:
     edc:	ab e0       	ldi	r26, 0x0B	; 11
     ede:	b0 e0       	ldi	r27, 0x00	; 0
     ee0:	e4 e7       	ldi	r30, 0x74	; 116
     ee2:	f7 e0       	ldi	r31, 0x07	; 7
     ee4:	0c 94 ff 09 	jmp	0x13fe	; 0x13fe <__prologue_saves__>
     ee8:	6c 01       	movw	r12, r24
     eea:	7b 01       	movw	r14, r22
     eec:	8a 01       	movw	r16, r20
     eee:	fc 01       	movw	r30, r24
     ef0:	17 82       	std	Z+7, r1	; 0x07
     ef2:	16 82       	std	Z+6, r1	; 0x06
     ef4:	83 81       	ldd	r24, Z+3	; 0x03
     ef6:	81 ff       	sbrs	r24, 1
     ef8:	cc c1       	rjmp	.+920    	; 0x1292 <vfprintf+0x3b6>
     efa:	ce 01       	movw	r24, r28
     efc:	01 96       	adiw	r24, 0x01	; 1
     efe:	3c 01       	movw	r6, r24
     f00:	f6 01       	movw	r30, r12
     f02:	93 81       	ldd	r25, Z+3	; 0x03
     f04:	f7 01       	movw	r30, r14
     f06:	93 fd       	sbrc	r25, 3
     f08:	85 91       	lpm	r24, Z+
     f0a:	93 ff       	sbrs	r25, 3
     f0c:	81 91       	ld	r24, Z+
     f0e:	7f 01       	movw	r14, r30
     f10:	88 23       	and	r24, r24
     f12:	09 f4       	brne	.+2      	; 0xf16 <vfprintf+0x3a>
     f14:	ba c1       	rjmp	.+884    	; 0x128a <vfprintf+0x3ae>
     f16:	85 32       	cpi	r24, 0x25	; 37
     f18:	39 f4       	brne	.+14     	; 0xf28 <vfprintf+0x4c>
     f1a:	93 fd       	sbrc	r25, 3
     f1c:	85 91       	lpm	r24, Z+
     f1e:	93 ff       	sbrs	r25, 3
     f20:	81 91       	ld	r24, Z+
     f22:	7f 01       	movw	r14, r30
     f24:	85 32       	cpi	r24, 0x25	; 37
     f26:	29 f4       	brne	.+10     	; 0xf32 <vfprintf+0x56>
     f28:	b6 01       	movw	r22, r12
     f2a:	90 e0       	ldi	r25, 0x00	; 0
     f2c:	0e 94 65 09 	call	0x12ca	; 0x12ca <fputc>
     f30:	e7 cf       	rjmp	.-50     	; 0xf00 <vfprintf+0x24>
     f32:	91 2c       	mov	r9, r1
     f34:	21 2c       	mov	r2, r1
     f36:	31 2c       	mov	r3, r1
     f38:	ff e1       	ldi	r31, 0x1F	; 31
     f3a:	f3 15       	cp	r31, r3
     f3c:	d8 f0       	brcs	.+54     	; 0xf74 <vfprintf+0x98>
     f3e:	8b 32       	cpi	r24, 0x2B	; 43
     f40:	79 f0       	breq	.+30     	; 0xf60 <vfprintf+0x84>
     f42:	38 f4       	brcc	.+14     	; 0xf52 <vfprintf+0x76>
     f44:	80 32       	cpi	r24, 0x20	; 32
     f46:	79 f0       	breq	.+30     	; 0xf66 <vfprintf+0x8a>
     f48:	83 32       	cpi	r24, 0x23	; 35
     f4a:	a1 f4       	brne	.+40     	; 0xf74 <vfprintf+0x98>
     f4c:	23 2d       	mov	r18, r3
     f4e:	20 61       	ori	r18, 0x10	; 16
     f50:	1d c0       	rjmp	.+58     	; 0xf8c <vfprintf+0xb0>
     f52:	8d 32       	cpi	r24, 0x2D	; 45
     f54:	61 f0       	breq	.+24     	; 0xf6e <vfprintf+0x92>
     f56:	80 33       	cpi	r24, 0x30	; 48
     f58:	69 f4       	brne	.+26     	; 0xf74 <vfprintf+0x98>
     f5a:	23 2d       	mov	r18, r3
     f5c:	21 60       	ori	r18, 0x01	; 1
     f5e:	16 c0       	rjmp	.+44     	; 0xf8c <vfprintf+0xb0>
     f60:	83 2d       	mov	r24, r3
     f62:	82 60       	ori	r24, 0x02	; 2
     f64:	38 2e       	mov	r3, r24
     f66:	e3 2d       	mov	r30, r3
     f68:	e4 60       	ori	r30, 0x04	; 4
     f6a:	3e 2e       	mov	r3, r30
     f6c:	2a c0       	rjmp	.+84     	; 0xfc2 <vfprintf+0xe6>
     f6e:	f3 2d       	mov	r31, r3
     f70:	f8 60       	ori	r31, 0x08	; 8
     f72:	1d c0       	rjmp	.+58     	; 0xfae <vfprintf+0xd2>
     f74:	37 fc       	sbrc	r3, 7
     f76:	2d c0       	rjmp	.+90     	; 0xfd2 <vfprintf+0xf6>
     f78:	20 ed       	ldi	r18, 0xD0	; 208
     f7a:	28 0f       	add	r18, r24
     f7c:	2a 30       	cpi	r18, 0x0A	; 10
     f7e:	40 f0       	brcs	.+16     	; 0xf90 <vfprintf+0xb4>
     f80:	8e 32       	cpi	r24, 0x2E	; 46
     f82:	b9 f4       	brne	.+46     	; 0xfb2 <vfprintf+0xd6>
     f84:	36 fc       	sbrc	r3, 6
     f86:	81 c1       	rjmp	.+770    	; 0x128a <vfprintf+0x3ae>
     f88:	23 2d       	mov	r18, r3
     f8a:	20 64       	ori	r18, 0x40	; 64
     f8c:	32 2e       	mov	r3, r18
     f8e:	19 c0       	rjmp	.+50     	; 0xfc2 <vfprintf+0xe6>
     f90:	36 fe       	sbrs	r3, 6
     f92:	06 c0       	rjmp	.+12     	; 0xfa0 <vfprintf+0xc4>
     f94:	8a e0       	ldi	r24, 0x0A	; 10
     f96:	98 9e       	mul	r9, r24
     f98:	20 0d       	add	r18, r0
     f9a:	11 24       	eor	r1, r1
     f9c:	92 2e       	mov	r9, r18
     f9e:	11 c0       	rjmp	.+34     	; 0xfc2 <vfprintf+0xe6>
     fa0:	ea e0       	ldi	r30, 0x0A	; 10
     fa2:	2e 9e       	mul	r2, r30
     fa4:	20 0d       	add	r18, r0
     fa6:	11 24       	eor	r1, r1
     fa8:	22 2e       	mov	r2, r18
     faa:	f3 2d       	mov	r31, r3
     fac:	f0 62       	ori	r31, 0x20	; 32
     fae:	3f 2e       	mov	r3, r31
     fb0:	08 c0       	rjmp	.+16     	; 0xfc2 <vfprintf+0xe6>
     fb2:	8c 36       	cpi	r24, 0x6C	; 108
     fb4:	21 f4       	brne	.+8      	; 0xfbe <vfprintf+0xe2>
     fb6:	83 2d       	mov	r24, r3
     fb8:	80 68       	ori	r24, 0x80	; 128
     fba:	38 2e       	mov	r3, r24
     fbc:	02 c0       	rjmp	.+4      	; 0xfc2 <vfprintf+0xe6>
     fbe:	88 36       	cpi	r24, 0x68	; 104
     fc0:	41 f4       	brne	.+16     	; 0xfd2 <vfprintf+0xf6>
     fc2:	f7 01       	movw	r30, r14
     fc4:	93 fd       	sbrc	r25, 3
     fc6:	85 91       	lpm	r24, Z+
     fc8:	93 ff       	sbrs	r25, 3
     fca:	81 91       	ld	r24, Z+
     fcc:	7f 01       	movw	r14, r30
     fce:	81 11       	cpse	r24, r1
     fd0:	b3 cf       	rjmp	.-154    	; 0xf38 <vfprintf+0x5c>
     fd2:	98 2f       	mov	r25, r24
     fd4:	9f 7d       	andi	r25, 0xDF	; 223
     fd6:	95 54       	subi	r25, 0x45	; 69
     fd8:	93 30       	cpi	r25, 0x03	; 3
     fda:	28 f4       	brcc	.+10     	; 0xfe6 <vfprintf+0x10a>
     fdc:	0c 5f       	subi	r16, 0xFC	; 252
     fde:	1f 4f       	sbci	r17, 0xFF	; 255
     fe0:	9f e3       	ldi	r25, 0x3F	; 63
     fe2:	99 83       	std	Y+1, r25	; 0x01
     fe4:	0d c0       	rjmp	.+26     	; 0x1000 <vfprintf+0x124>
     fe6:	83 36       	cpi	r24, 0x63	; 99
     fe8:	31 f0       	breq	.+12     	; 0xff6 <vfprintf+0x11a>
     fea:	83 37       	cpi	r24, 0x73	; 115
     fec:	71 f0       	breq	.+28     	; 0x100a <vfprintf+0x12e>
     fee:	83 35       	cpi	r24, 0x53	; 83
     ff0:	09 f0       	breq	.+2      	; 0xff4 <vfprintf+0x118>
     ff2:	59 c0       	rjmp	.+178    	; 0x10a6 <vfprintf+0x1ca>
     ff4:	21 c0       	rjmp	.+66     	; 0x1038 <vfprintf+0x15c>
     ff6:	f8 01       	movw	r30, r16
     ff8:	80 81       	ld	r24, Z
     ffa:	89 83       	std	Y+1, r24	; 0x01
     ffc:	0e 5f       	subi	r16, 0xFE	; 254
     ffe:	1f 4f       	sbci	r17, 0xFF	; 255
    1000:	88 24       	eor	r8, r8
    1002:	83 94       	inc	r8
    1004:	91 2c       	mov	r9, r1
    1006:	53 01       	movw	r10, r6
    1008:	13 c0       	rjmp	.+38     	; 0x1030 <vfprintf+0x154>
    100a:	28 01       	movw	r4, r16
    100c:	f2 e0       	ldi	r31, 0x02	; 2
    100e:	4f 0e       	add	r4, r31
    1010:	51 1c       	adc	r5, r1
    1012:	f8 01       	movw	r30, r16
    1014:	a0 80       	ld	r10, Z
    1016:	b1 80       	ldd	r11, Z+1	; 0x01
    1018:	36 fe       	sbrs	r3, 6
    101a:	03 c0       	rjmp	.+6      	; 0x1022 <vfprintf+0x146>
    101c:	69 2d       	mov	r22, r9
    101e:	70 e0       	ldi	r23, 0x00	; 0
    1020:	02 c0       	rjmp	.+4      	; 0x1026 <vfprintf+0x14a>
    1022:	6f ef       	ldi	r22, 0xFF	; 255
    1024:	7f ef       	ldi	r23, 0xFF	; 255
    1026:	c5 01       	movw	r24, r10
    1028:	0e 94 5a 09 	call	0x12b4	; 0x12b4 <strnlen>
    102c:	4c 01       	movw	r8, r24
    102e:	82 01       	movw	r16, r4
    1030:	f3 2d       	mov	r31, r3
    1032:	ff 77       	andi	r31, 0x7F	; 127
    1034:	3f 2e       	mov	r3, r31
    1036:	16 c0       	rjmp	.+44     	; 0x1064 <vfprintf+0x188>
    1038:	28 01       	movw	r4, r16
    103a:	22 e0       	ldi	r18, 0x02	; 2
    103c:	42 0e       	add	r4, r18
    103e:	51 1c       	adc	r5, r1
    1040:	f8 01       	movw	r30, r16
    1042:	a0 80       	ld	r10, Z
    1044:	b1 80       	ldd	r11, Z+1	; 0x01
    1046:	36 fe       	sbrs	r3, 6
    1048:	03 c0       	rjmp	.+6      	; 0x1050 <vfprintf+0x174>
    104a:	69 2d       	mov	r22, r9
    104c:	70 e0       	ldi	r23, 0x00	; 0
    104e:	02 c0       	rjmp	.+4      	; 0x1054 <vfprintf+0x178>
    1050:	6f ef       	ldi	r22, 0xFF	; 255
    1052:	7f ef       	ldi	r23, 0xFF	; 255
    1054:	c5 01       	movw	r24, r10
    1056:	0e 94 4f 09 	call	0x129e	; 0x129e <strnlen_P>
    105a:	4c 01       	movw	r8, r24
    105c:	f3 2d       	mov	r31, r3
    105e:	f0 68       	ori	r31, 0x80	; 128
    1060:	3f 2e       	mov	r3, r31
    1062:	82 01       	movw	r16, r4
    1064:	33 fc       	sbrc	r3, 3
    1066:	1b c0       	rjmp	.+54     	; 0x109e <vfprintf+0x1c2>
    1068:	82 2d       	mov	r24, r2
    106a:	90 e0       	ldi	r25, 0x00	; 0
    106c:	88 16       	cp	r8, r24
    106e:	99 06       	cpc	r9, r25
    1070:	b0 f4       	brcc	.+44     	; 0x109e <vfprintf+0x1c2>
    1072:	b6 01       	movw	r22, r12
    1074:	80 e2       	ldi	r24, 0x20	; 32
    1076:	90 e0       	ldi	r25, 0x00	; 0
    1078:	0e 94 65 09 	call	0x12ca	; 0x12ca <fputc>
    107c:	2a 94       	dec	r2
    107e:	f4 cf       	rjmp	.-24     	; 0x1068 <vfprintf+0x18c>
    1080:	f5 01       	movw	r30, r10
    1082:	37 fc       	sbrc	r3, 7
    1084:	85 91       	lpm	r24, Z+
    1086:	37 fe       	sbrs	r3, 7
    1088:	81 91       	ld	r24, Z+
    108a:	5f 01       	movw	r10, r30
    108c:	b6 01       	movw	r22, r12
    108e:	90 e0       	ldi	r25, 0x00	; 0
    1090:	0e 94 65 09 	call	0x12ca	; 0x12ca <fputc>
    1094:	21 10       	cpse	r2, r1
    1096:	2a 94       	dec	r2
    1098:	21 e0       	ldi	r18, 0x01	; 1
    109a:	82 1a       	sub	r8, r18
    109c:	91 08       	sbc	r9, r1
    109e:	81 14       	cp	r8, r1
    10a0:	91 04       	cpc	r9, r1
    10a2:	71 f7       	brne	.-36     	; 0x1080 <vfprintf+0x1a4>
    10a4:	e8 c0       	rjmp	.+464    	; 0x1276 <vfprintf+0x39a>
    10a6:	84 36       	cpi	r24, 0x64	; 100
    10a8:	11 f0       	breq	.+4      	; 0x10ae <vfprintf+0x1d2>
    10aa:	89 36       	cpi	r24, 0x69	; 105
    10ac:	41 f5       	brne	.+80     	; 0x10fe <vfprintf+0x222>
    10ae:	f8 01       	movw	r30, r16
    10b0:	37 fe       	sbrs	r3, 7
    10b2:	07 c0       	rjmp	.+14     	; 0x10c2 <vfprintf+0x1e6>
    10b4:	60 81       	ld	r22, Z
    10b6:	71 81       	ldd	r23, Z+1	; 0x01
    10b8:	82 81       	ldd	r24, Z+2	; 0x02
    10ba:	93 81       	ldd	r25, Z+3	; 0x03
    10bc:	0c 5f       	subi	r16, 0xFC	; 252
    10be:	1f 4f       	sbci	r17, 0xFF	; 255
    10c0:	08 c0       	rjmp	.+16     	; 0x10d2 <vfprintf+0x1f6>
    10c2:	60 81       	ld	r22, Z
    10c4:	71 81       	ldd	r23, Z+1	; 0x01
    10c6:	07 2e       	mov	r0, r23
    10c8:	00 0c       	add	r0, r0
    10ca:	88 0b       	sbc	r24, r24
    10cc:	99 0b       	sbc	r25, r25
    10ce:	0e 5f       	subi	r16, 0xFE	; 254
    10d0:	1f 4f       	sbci	r17, 0xFF	; 255
    10d2:	f3 2d       	mov	r31, r3
    10d4:	ff 76       	andi	r31, 0x6F	; 111
    10d6:	3f 2e       	mov	r3, r31
    10d8:	97 ff       	sbrs	r25, 7
    10da:	09 c0       	rjmp	.+18     	; 0x10ee <vfprintf+0x212>
    10dc:	90 95       	com	r25
    10de:	80 95       	com	r24
    10e0:	70 95       	com	r23
    10e2:	61 95       	neg	r22
    10e4:	7f 4f       	sbci	r23, 0xFF	; 255
    10e6:	8f 4f       	sbci	r24, 0xFF	; 255
    10e8:	9f 4f       	sbci	r25, 0xFF	; 255
    10ea:	f0 68       	ori	r31, 0x80	; 128
    10ec:	3f 2e       	mov	r3, r31
    10ee:	2a e0       	ldi	r18, 0x0A	; 10
    10f0:	30 e0       	ldi	r19, 0x00	; 0
    10f2:	a3 01       	movw	r20, r6
    10f4:	0e 94 a1 09 	call	0x1342	; 0x1342 <__ultoa_invert>
    10f8:	88 2e       	mov	r8, r24
    10fa:	86 18       	sub	r8, r6
    10fc:	45 c0       	rjmp	.+138    	; 0x1188 <vfprintf+0x2ac>
    10fe:	85 37       	cpi	r24, 0x75	; 117
    1100:	31 f4       	brne	.+12     	; 0x110e <vfprintf+0x232>
    1102:	23 2d       	mov	r18, r3
    1104:	2f 7e       	andi	r18, 0xEF	; 239
    1106:	b2 2e       	mov	r11, r18
    1108:	2a e0       	ldi	r18, 0x0A	; 10
    110a:	30 e0       	ldi	r19, 0x00	; 0
    110c:	25 c0       	rjmp	.+74     	; 0x1158 <vfprintf+0x27c>
    110e:	93 2d       	mov	r25, r3
    1110:	99 7f       	andi	r25, 0xF9	; 249
    1112:	b9 2e       	mov	r11, r25
    1114:	8f 36       	cpi	r24, 0x6F	; 111
    1116:	c1 f0       	breq	.+48     	; 0x1148 <vfprintf+0x26c>
    1118:	18 f4       	brcc	.+6      	; 0x1120 <vfprintf+0x244>
    111a:	88 35       	cpi	r24, 0x58	; 88
    111c:	79 f0       	breq	.+30     	; 0x113c <vfprintf+0x260>
    111e:	b5 c0       	rjmp	.+362    	; 0x128a <vfprintf+0x3ae>
    1120:	80 37       	cpi	r24, 0x70	; 112
    1122:	19 f0       	breq	.+6      	; 0x112a <vfprintf+0x24e>
    1124:	88 37       	cpi	r24, 0x78	; 120
    1126:	21 f0       	breq	.+8      	; 0x1130 <vfprintf+0x254>
    1128:	b0 c0       	rjmp	.+352    	; 0x128a <vfprintf+0x3ae>
    112a:	e9 2f       	mov	r30, r25
    112c:	e0 61       	ori	r30, 0x10	; 16
    112e:	be 2e       	mov	r11, r30
    1130:	b4 fe       	sbrs	r11, 4
    1132:	0d c0       	rjmp	.+26     	; 0x114e <vfprintf+0x272>
    1134:	fb 2d       	mov	r31, r11
    1136:	f4 60       	ori	r31, 0x04	; 4
    1138:	bf 2e       	mov	r11, r31
    113a:	09 c0       	rjmp	.+18     	; 0x114e <vfprintf+0x272>
    113c:	34 fe       	sbrs	r3, 4
    113e:	0a c0       	rjmp	.+20     	; 0x1154 <vfprintf+0x278>
    1140:	29 2f       	mov	r18, r25
    1142:	26 60       	ori	r18, 0x06	; 6
    1144:	b2 2e       	mov	r11, r18
    1146:	06 c0       	rjmp	.+12     	; 0x1154 <vfprintf+0x278>
    1148:	28 e0       	ldi	r18, 0x08	; 8
    114a:	30 e0       	ldi	r19, 0x00	; 0
    114c:	05 c0       	rjmp	.+10     	; 0x1158 <vfprintf+0x27c>
    114e:	20 e1       	ldi	r18, 0x10	; 16
    1150:	30 e0       	ldi	r19, 0x00	; 0
    1152:	02 c0       	rjmp	.+4      	; 0x1158 <vfprintf+0x27c>
    1154:	20 e1       	ldi	r18, 0x10	; 16
    1156:	32 e0       	ldi	r19, 0x02	; 2
    1158:	f8 01       	movw	r30, r16
    115a:	b7 fe       	sbrs	r11, 7
    115c:	07 c0       	rjmp	.+14     	; 0x116c <vfprintf+0x290>
    115e:	60 81       	ld	r22, Z
    1160:	71 81       	ldd	r23, Z+1	; 0x01
    1162:	82 81       	ldd	r24, Z+2	; 0x02
    1164:	93 81       	ldd	r25, Z+3	; 0x03
    1166:	0c 5f       	subi	r16, 0xFC	; 252
    1168:	1f 4f       	sbci	r17, 0xFF	; 255
    116a:	06 c0       	rjmp	.+12     	; 0x1178 <vfprintf+0x29c>
    116c:	60 81       	ld	r22, Z
    116e:	71 81       	ldd	r23, Z+1	; 0x01
    1170:	80 e0       	ldi	r24, 0x00	; 0
    1172:	90 e0       	ldi	r25, 0x00	; 0
    1174:	0e 5f       	subi	r16, 0xFE	; 254
    1176:	1f 4f       	sbci	r17, 0xFF	; 255
    1178:	a3 01       	movw	r20, r6
    117a:	0e 94 a1 09 	call	0x1342	; 0x1342 <__ultoa_invert>
    117e:	88 2e       	mov	r8, r24
    1180:	86 18       	sub	r8, r6
    1182:	fb 2d       	mov	r31, r11
    1184:	ff 77       	andi	r31, 0x7F	; 127
    1186:	3f 2e       	mov	r3, r31
    1188:	36 fe       	sbrs	r3, 6
    118a:	0d c0       	rjmp	.+26     	; 0x11a6 <vfprintf+0x2ca>
    118c:	23 2d       	mov	r18, r3
    118e:	2e 7f       	andi	r18, 0xFE	; 254
    1190:	a2 2e       	mov	r10, r18
    1192:	89 14       	cp	r8, r9
    1194:	58 f4       	brcc	.+22     	; 0x11ac <vfprintf+0x2d0>
    1196:	34 fe       	sbrs	r3, 4
    1198:	0b c0       	rjmp	.+22     	; 0x11b0 <vfprintf+0x2d4>
    119a:	32 fc       	sbrc	r3, 2
    119c:	09 c0       	rjmp	.+18     	; 0x11b0 <vfprintf+0x2d4>
    119e:	83 2d       	mov	r24, r3
    11a0:	8e 7e       	andi	r24, 0xEE	; 238
    11a2:	a8 2e       	mov	r10, r24
    11a4:	05 c0       	rjmp	.+10     	; 0x11b0 <vfprintf+0x2d4>
    11a6:	b8 2c       	mov	r11, r8
    11a8:	a3 2c       	mov	r10, r3
    11aa:	03 c0       	rjmp	.+6      	; 0x11b2 <vfprintf+0x2d6>
    11ac:	b8 2c       	mov	r11, r8
    11ae:	01 c0       	rjmp	.+2      	; 0x11b2 <vfprintf+0x2d6>
    11b0:	b9 2c       	mov	r11, r9
    11b2:	a4 fe       	sbrs	r10, 4
    11b4:	0f c0       	rjmp	.+30     	; 0x11d4 <vfprintf+0x2f8>
    11b6:	fe 01       	movw	r30, r28
    11b8:	e8 0d       	add	r30, r8
    11ba:	f1 1d       	adc	r31, r1
    11bc:	80 81       	ld	r24, Z
    11be:	80 33       	cpi	r24, 0x30	; 48
    11c0:	21 f4       	brne	.+8      	; 0x11ca <vfprintf+0x2ee>
    11c2:	9a 2d       	mov	r25, r10
    11c4:	99 7e       	andi	r25, 0xE9	; 233
    11c6:	a9 2e       	mov	r10, r25
    11c8:	09 c0       	rjmp	.+18     	; 0x11dc <vfprintf+0x300>
    11ca:	a2 fe       	sbrs	r10, 2
    11cc:	06 c0       	rjmp	.+12     	; 0x11da <vfprintf+0x2fe>
    11ce:	b3 94       	inc	r11
    11d0:	b3 94       	inc	r11
    11d2:	04 c0       	rjmp	.+8      	; 0x11dc <vfprintf+0x300>
    11d4:	8a 2d       	mov	r24, r10
    11d6:	86 78       	andi	r24, 0x86	; 134
    11d8:	09 f0       	breq	.+2      	; 0x11dc <vfprintf+0x300>
    11da:	b3 94       	inc	r11
    11dc:	a3 fc       	sbrc	r10, 3
    11de:	11 c0       	rjmp	.+34     	; 0x1202 <vfprintf+0x326>
    11e0:	a0 fe       	sbrs	r10, 0
    11e2:	06 c0       	rjmp	.+12     	; 0x11f0 <vfprintf+0x314>
    11e4:	b2 14       	cp	r11, r2
    11e6:	88 f4       	brcc	.+34     	; 0x120a <vfprintf+0x32e>
    11e8:	28 0c       	add	r2, r8
    11ea:	92 2c       	mov	r9, r2
    11ec:	9b 18       	sub	r9, r11
    11ee:	0e c0       	rjmp	.+28     	; 0x120c <vfprintf+0x330>
    11f0:	b2 14       	cp	r11, r2
    11f2:	60 f4       	brcc	.+24     	; 0x120c <vfprintf+0x330>
    11f4:	b6 01       	movw	r22, r12
    11f6:	80 e2       	ldi	r24, 0x20	; 32
    11f8:	90 e0       	ldi	r25, 0x00	; 0
    11fa:	0e 94 65 09 	call	0x12ca	; 0x12ca <fputc>
    11fe:	b3 94       	inc	r11
    1200:	f7 cf       	rjmp	.-18     	; 0x11f0 <vfprintf+0x314>
    1202:	b2 14       	cp	r11, r2
    1204:	18 f4       	brcc	.+6      	; 0x120c <vfprintf+0x330>
    1206:	2b 18       	sub	r2, r11
    1208:	02 c0       	rjmp	.+4      	; 0x120e <vfprintf+0x332>
    120a:	98 2c       	mov	r9, r8
    120c:	21 2c       	mov	r2, r1
    120e:	a4 fe       	sbrs	r10, 4
    1210:	10 c0       	rjmp	.+32     	; 0x1232 <vfprintf+0x356>
    1212:	b6 01       	movw	r22, r12
    1214:	80 e3       	ldi	r24, 0x30	; 48
    1216:	90 e0       	ldi	r25, 0x00	; 0
    1218:	0e 94 65 09 	call	0x12ca	; 0x12ca <fputc>
    121c:	a2 fe       	sbrs	r10, 2
    121e:	17 c0       	rjmp	.+46     	; 0x124e <vfprintf+0x372>
    1220:	a1 fc       	sbrc	r10, 1
    1222:	03 c0       	rjmp	.+6      	; 0x122a <vfprintf+0x34e>
    1224:	88 e7       	ldi	r24, 0x78	; 120
    1226:	90 e0       	ldi	r25, 0x00	; 0
    1228:	02 c0       	rjmp	.+4      	; 0x122e <vfprintf+0x352>
    122a:	88 e5       	ldi	r24, 0x58	; 88
    122c:	90 e0       	ldi	r25, 0x00	; 0
    122e:	b6 01       	movw	r22, r12
    1230:	0c c0       	rjmp	.+24     	; 0x124a <vfprintf+0x36e>
    1232:	8a 2d       	mov	r24, r10
    1234:	86 78       	andi	r24, 0x86	; 134
    1236:	59 f0       	breq	.+22     	; 0x124e <vfprintf+0x372>
    1238:	a1 fe       	sbrs	r10, 1
    123a:	02 c0       	rjmp	.+4      	; 0x1240 <vfprintf+0x364>
    123c:	8b e2       	ldi	r24, 0x2B	; 43
    123e:	01 c0       	rjmp	.+2      	; 0x1242 <vfprintf+0x366>
    1240:	80 e2       	ldi	r24, 0x20	; 32
    1242:	a7 fc       	sbrc	r10, 7
    1244:	8d e2       	ldi	r24, 0x2D	; 45
    1246:	b6 01       	movw	r22, r12
    1248:	90 e0       	ldi	r25, 0x00	; 0
    124a:	0e 94 65 09 	call	0x12ca	; 0x12ca <fputc>
    124e:	89 14       	cp	r8, r9
    1250:	38 f4       	brcc	.+14     	; 0x1260 <vfprintf+0x384>
    1252:	b6 01       	movw	r22, r12
    1254:	80 e3       	ldi	r24, 0x30	; 48
    1256:	90 e0       	ldi	r25, 0x00	; 0
    1258:	0e 94 65 09 	call	0x12ca	; 0x12ca <fputc>
    125c:	9a 94       	dec	r9
    125e:	f7 cf       	rjmp	.-18     	; 0x124e <vfprintf+0x372>
    1260:	8a 94       	dec	r8
    1262:	f3 01       	movw	r30, r6
    1264:	e8 0d       	add	r30, r8
    1266:	f1 1d       	adc	r31, r1
    1268:	80 81       	ld	r24, Z
    126a:	b6 01       	movw	r22, r12
    126c:	90 e0       	ldi	r25, 0x00	; 0
    126e:	0e 94 65 09 	call	0x12ca	; 0x12ca <fputc>
    1272:	81 10       	cpse	r8, r1
    1274:	f5 cf       	rjmp	.-22     	; 0x1260 <vfprintf+0x384>
    1276:	22 20       	and	r2, r2
    1278:	09 f4       	brne	.+2      	; 0x127c <vfprintf+0x3a0>
    127a:	42 ce       	rjmp	.-892    	; 0xf00 <vfprintf+0x24>
    127c:	b6 01       	movw	r22, r12
    127e:	80 e2       	ldi	r24, 0x20	; 32
    1280:	90 e0       	ldi	r25, 0x00	; 0
    1282:	0e 94 65 09 	call	0x12ca	; 0x12ca <fputc>
    1286:	2a 94       	dec	r2
    1288:	f6 cf       	rjmp	.-20     	; 0x1276 <vfprintf+0x39a>
    128a:	f6 01       	movw	r30, r12
    128c:	86 81       	ldd	r24, Z+6	; 0x06
    128e:	97 81       	ldd	r25, Z+7	; 0x07
    1290:	02 c0       	rjmp	.+4      	; 0x1296 <vfprintf+0x3ba>
    1292:	8f ef       	ldi	r24, 0xFF	; 255
    1294:	9f ef       	ldi	r25, 0xFF	; 255
    1296:	2b 96       	adiw	r28, 0x0b	; 11
    1298:	e2 e1       	ldi	r30, 0x12	; 18
    129a:	0c 94 1b 0a 	jmp	0x1436	; 0x1436 <__epilogue_restores__>

0000129e <strnlen_P>:
    129e:	fc 01       	movw	r30, r24
    12a0:	05 90       	lpm	r0, Z+
    12a2:	61 50       	subi	r22, 0x01	; 1
    12a4:	70 40       	sbci	r23, 0x00	; 0
    12a6:	01 10       	cpse	r0, r1
    12a8:	d8 f7       	brcc	.-10     	; 0x12a0 <strnlen_P+0x2>
    12aa:	80 95       	com	r24
    12ac:	90 95       	com	r25
    12ae:	8e 0f       	add	r24, r30
    12b0:	9f 1f       	adc	r25, r31
    12b2:	08 95       	ret

000012b4 <strnlen>:
    12b4:	fc 01       	movw	r30, r24
    12b6:	61 50       	subi	r22, 0x01	; 1
    12b8:	70 40       	sbci	r23, 0x00	; 0
    12ba:	01 90       	ld	r0, Z+
    12bc:	01 10       	cpse	r0, r1
    12be:	d8 f7       	brcc	.-10     	; 0x12b6 <strnlen+0x2>
    12c0:	80 95       	com	r24
    12c2:	90 95       	com	r25
    12c4:	8e 0f       	add	r24, r30
    12c6:	9f 1f       	adc	r25, r31
    12c8:	08 95       	ret

000012ca <fputc>:
    12ca:	0f 93       	push	r16
    12cc:	1f 93       	push	r17
    12ce:	cf 93       	push	r28
    12d0:	df 93       	push	r29
    12d2:	fb 01       	movw	r30, r22
    12d4:	23 81       	ldd	r18, Z+3	; 0x03
    12d6:	21 fd       	sbrc	r18, 1
    12d8:	03 c0       	rjmp	.+6      	; 0x12e0 <fputc+0x16>
    12da:	8f ef       	ldi	r24, 0xFF	; 255
    12dc:	9f ef       	ldi	r25, 0xFF	; 255
    12de:	2c c0       	rjmp	.+88     	; 0x1338 <fputc+0x6e>
    12e0:	22 ff       	sbrs	r18, 2
    12e2:	16 c0       	rjmp	.+44     	; 0x1310 <fputc+0x46>
    12e4:	46 81       	ldd	r20, Z+6	; 0x06
    12e6:	57 81       	ldd	r21, Z+7	; 0x07
    12e8:	24 81       	ldd	r18, Z+4	; 0x04
    12ea:	35 81       	ldd	r19, Z+5	; 0x05
    12ec:	42 17       	cp	r20, r18
    12ee:	53 07       	cpc	r21, r19
    12f0:	44 f4       	brge	.+16     	; 0x1302 <fputc+0x38>
    12f2:	a0 81       	ld	r26, Z
    12f4:	b1 81       	ldd	r27, Z+1	; 0x01
    12f6:	9d 01       	movw	r18, r26
    12f8:	2f 5f       	subi	r18, 0xFF	; 255
    12fa:	3f 4f       	sbci	r19, 0xFF	; 255
    12fc:	31 83       	std	Z+1, r19	; 0x01
    12fe:	20 83       	st	Z, r18
    1300:	8c 93       	st	X, r24
    1302:	26 81       	ldd	r18, Z+6	; 0x06
    1304:	37 81       	ldd	r19, Z+7	; 0x07
    1306:	2f 5f       	subi	r18, 0xFF	; 255
    1308:	3f 4f       	sbci	r19, 0xFF	; 255
    130a:	37 83       	std	Z+7, r19	; 0x07
    130c:	26 83       	std	Z+6, r18	; 0x06
    130e:	14 c0       	rjmp	.+40     	; 0x1338 <fputc+0x6e>
    1310:	8b 01       	movw	r16, r22
    1312:	ec 01       	movw	r28, r24
    1314:	fb 01       	movw	r30, r22
    1316:	00 84       	ldd	r0, Z+8	; 0x08
    1318:	f1 85       	ldd	r31, Z+9	; 0x09
    131a:	e0 2d       	mov	r30, r0
    131c:	09 95       	icall
    131e:	89 2b       	or	r24, r25
    1320:	e1 f6       	brne	.-72     	; 0x12da <fputc+0x10>
    1322:	d8 01       	movw	r26, r16
    1324:	16 96       	adiw	r26, 0x06	; 6
    1326:	8d 91       	ld	r24, X+
    1328:	9c 91       	ld	r25, X
    132a:	17 97       	sbiw	r26, 0x07	; 7
    132c:	01 96       	adiw	r24, 0x01	; 1
    132e:	17 96       	adiw	r26, 0x07	; 7
    1330:	9c 93       	st	X, r25
    1332:	8e 93       	st	-X, r24
    1334:	16 97       	sbiw	r26, 0x06	; 6
    1336:	ce 01       	movw	r24, r28
    1338:	df 91       	pop	r29
    133a:	cf 91       	pop	r28
    133c:	1f 91       	pop	r17
    133e:	0f 91       	pop	r16
    1340:	08 95       	ret

00001342 <__ultoa_invert>:
    1342:	fa 01       	movw	r30, r20
    1344:	aa 27       	eor	r26, r26
    1346:	28 30       	cpi	r18, 0x08	; 8
    1348:	51 f1       	breq	.+84     	; 0x139e <__ultoa_invert+0x5c>
    134a:	20 31       	cpi	r18, 0x10	; 16
    134c:	81 f1       	breq	.+96     	; 0x13ae <__ultoa_invert+0x6c>
    134e:	e8 94       	clt
    1350:	6f 93       	push	r22
    1352:	6e 7f       	andi	r22, 0xFE	; 254
    1354:	6e 5f       	subi	r22, 0xFE	; 254
    1356:	7f 4f       	sbci	r23, 0xFF	; 255
    1358:	8f 4f       	sbci	r24, 0xFF	; 255
    135a:	9f 4f       	sbci	r25, 0xFF	; 255
    135c:	af 4f       	sbci	r26, 0xFF	; 255
    135e:	b1 e0       	ldi	r27, 0x01	; 1
    1360:	3e d0       	rcall	.+124    	; 0x13de <__ultoa_invert+0x9c>
    1362:	b4 e0       	ldi	r27, 0x04	; 4
    1364:	3c d0       	rcall	.+120    	; 0x13de <__ultoa_invert+0x9c>
    1366:	67 0f       	add	r22, r23
    1368:	78 1f       	adc	r23, r24
    136a:	89 1f       	adc	r24, r25
    136c:	9a 1f       	adc	r25, r26
    136e:	a1 1d       	adc	r26, r1
    1370:	68 0f       	add	r22, r24
    1372:	79 1f       	adc	r23, r25
    1374:	8a 1f       	adc	r24, r26
    1376:	91 1d       	adc	r25, r1
    1378:	a1 1d       	adc	r26, r1
    137a:	6a 0f       	add	r22, r26
    137c:	71 1d       	adc	r23, r1
    137e:	81 1d       	adc	r24, r1
    1380:	91 1d       	adc	r25, r1
    1382:	a1 1d       	adc	r26, r1
    1384:	20 d0       	rcall	.+64     	; 0x13c6 <__ultoa_invert+0x84>
    1386:	09 f4       	brne	.+2      	; 0x138a <__ultoa_invert+0x48>
    1388:	68 94       	set
    138a:	3f 91       	pop	r19
    138c:	2a e0       	ldi	r18, 0x0A	; 10
    138e:	26 9f       	mul	r18, r22
    1390:	11 24       	eor	r1, r1
    1392:	30 19       	sub	r19, r0
    1394:	30 5d       	subi	r19, 0xD0	; 208
    1396:	31 93       	st	Z+, r19
    1398:	de f6       	brtc	.-74     	; 0x1350 <__ultoa_invert+0xe>
    139a:	cf 01       	movw	r24, r30
    139c:	08 95       	ret
    139e:	46 2f       	mov	r20, r22
    13a0:	47 70       	andi	r20, 0x07	; 7
    13a2:	40 5d       	subi	r20, 0xD0	; 208
    13a4:	41 93       	st	Z+, r20
    13a6:	b3 e0       	ldi	r27, 0x03	; 3
    13a8:	0f d0       	rcall	.+30     	; 0x13c8 <__ultoa_invert+0x86>
    13aa:	c9 f7       	brne	.-14     	; 0x139e <__ultoa_invert+0x5c>
    13ac:	f6 cf       	rjmp	.-20     	; 0x139a <__ultoa_invert+0x58>
    13ae:	46 2f       	mov	r20, r22
    13b0:	4f 70       	andi	r20, 0x0F	; 15
    13b2:	40 5d       	subi	r20, 0xD0	; 208
    13b4:	4a 33       	cpi	r20, 0x3A	; 58
    13b6:	18 f0       	brcs	.+6      	; 0x13be <__ultoa_invert+0x7c>
    13b8:	49 5d       	subi	r20, 0xD9	; 217
    13ba:	31 fd       	sbrc	r19, 1
    13bc:	40 52       	subi	r20, 0x20	; 32
    13be:	41 93       	st	Z+, r20
    13c0:	02 d0       	rcall	.+4      	; 0x13c6 <__ultoa_invert+0x84>
    13c2:	a9 f7       	brne	.-22     	; 0x13ae <__ultoa_invert+0x6c>
    13c4:	ea cf       	rjmp	.-44     	; 0x139a <__ultoa_invert+0x58>
    13c6:	b4 e0       	ldi	r27, 0x04	; 4
    13c8:	a6 95       	lsr	r26
    13ca:	97 95       	ror	r25
    13cc:	87 95       	ror	r24
    13ce:	77 95       	ror	r23
    13d0:	67 95       	ror	r22
    13d2:	ba 95       	dec	r27
    13d4:	c9 f7       	brne	.-14     	; 0x13c8 <__ultoa_invert+0x86>
    13d6:	00 97       	sbiw	r24, 0x00	; 0
    13d8:	61 05       	cpc	r22, r1
    13da:	71 05       	cpc	r23, r1
    13dc:	08 95       	ret
    13de:	9b 01       	movw	r18, r22
    13e0:	ac 01       	movw	r20, r24
    13e2:	0a 2e       	mov	r0, r26
    13e4:	06 94       	lsr	r0
    13e6:	57 95       	ror	r21
    13e8:	47 95       	ror	r20
    13ea:	37 95       	ror	r19
    13ec:	27 95       	ror	r18
    13ee:	ba 95       	dec	r27
    13f0:	c9 f7       	brne	.-14     	; 0x13e4 <__ultoa_invert+0xa2>
    13f2:	62 0f       	add	r22, r18
    13f4:	73 1f       	adc	r23, r19
    13f6:	84 1f       	adc	r24, r20
    13f8:	95 1f       	adc	r25, r21
    13fa:	a0 1d       	adc	r26, r0
    13fc:	08 95       	ret

000013fe <__prologue_saves__>:
    13fe:	2f 92       	push	r2
    1400:	3f 92       	push	r3
    1402:	4f 92       	push	r4
    1404:	5f 92       	push	r5
    1406:	6f 92       	push	r6
    1408:	7f 92       	push	r7
    140a:	8f 92       	push	r8
    140c:	9f 92       	push	r9
    140e:	af 92       	push	r10
    1410:	bf 92       	push	r11
    1412:	cf 92       	push	r12
    1414:	df 92       	push	r13
    1416:	ef 92       	push	r14
    1418:	ff 92       	push	r15
    141a:	0f 93       	push	r16
    141c:	1f 93       	push	r17
    141e:	cf 93       	push	r28
    1420:	df 93       	push	r29
    1422:	cd b7       	in	r28, 0x3d	; 61
    1424:	de b7       	in	r29, 0x3e	; 62
    1426:	ca 1b       	sub	r28, r26
    1428:	db 0b       	sbc	r29, r27
    142a:	0f b6       	in	r0, 0x3f	; 63
    142c:	f8 94       	cli
    142e:	de bf       	out	0x3e, r29	; 62
    1430:	0f be       	out	0x3f, r0	; 63
    1432:	cd bf       	out	0x3d, r28	; 61
    1434:	09 94       	ijmp

00001436 <__epilogue_restores__>:
    1436:	2a 88       	ldd	r2, Y+18	; 0x12
    1438:	39 88       	ldd	r3, Y+17	; 0x11
    143a:	48 88       	ldd	r4, Y+16	; 0x10
    143c:	5f 84       	ldd	r5, Y+15	; 0x0f
    143e:	6e 84       	ldd	r6, Y+14	; 0x0e
    1440:	7d 84       	ldd	r7, Y+13	; 0x0d
    1442:	8c 84       	ldd	r8, Y+12	; 0x0c
    1444:	9b 84       	ldd	r9, Y+11	; 0x0b
    1446:	aa 84       	ldd	r10, Y+10	; 0x0a
    1448:	b9 84       	ldd	r11, Y+9	; 0x09
    144a:	c8 84       	ldd	r12, Y+8	; 0x08
    144c:	df 80       	ldd	r13, Y+7	; 0x07
    144e:	ee 80       	ldd	r14, Y+6	; 0x06
    1450:	fd 80       	ldd	r15, Y+5	; 0x05
    1452:	0c 81       	ldd	r16, Y+4	; 0x04
    1454:	1b 81       	ldd	r17, Y+3	; 0x03
    1456:	aa 81       	ldd	r26, Y+2	; 0x02
    1458:	b9 81       	ldd	r27, Y+1	; 0x01
    145a:	ce 0f       	add	r28, r30
    145c:	d1 1d       	adc	r29, r1
    145e:	0f b6       	in	r0, 0x3f	; 63
    1460:	f8 94       	cli
    1462:	de bf       	out	0x3e, r29	; 62
    1464:	0f be       	out	0x3f, r0	; 63
    1466:	cd bf       	out	0x3d, r28	; 61
    1468:	ed 01       	movw	r28, r26
    146a:	08 95       	ret

0000146c <_exit>:
    146c:	f8 94       	cli

0000146e <__stop_program>:
    146e:	ff cf       	rjmp	.-2      	; 0x146e <__stop_program>
